
Blackshield_Bootloader.elf:     file format elf32-littlearm

Sections:
Idx Name          Size      VMA       LMA       File off  Algn
  0 .isr_vector   00000188  08000000  08000000  00001000  2**0
                  CONTENTS, ALLOC, LOAD, READONLY, DATA
  1 .text         00002290  08000188  08000188  00001188  2**2
                  CONTENTS, ALLOC, LOAD, READONLY, CODE
  2 .app_section  00000048  08008000  08008000  00005000  2**2
                  CONTENTS, ALLOC, LOAD, READONLY, CODE
  3 .rodata       00000010  08002418  08002418  00003418  2**2
                  CONTENTS, ALLOC, LOAD, READONLY, DATA
  4 .ARM.extab    00000000  08002428  08002428  00005048  2**0
                  CONTENTS
  5 .ARM          00000000  08002428  08002428  00005048  2**0
                  CONTENTS
  6 .preinit_array 00000000  08002428  08002428  00005048  2**0
                  CONTENTS, ALLOC, LOAD, DATA
  7 .init_array   00000004  08002428  08002428  00003428  2**2
                  CONTENTS, ALLOC, LOAD, READONLY, DATA
  8 .fini_array   00000004  0800242c  0800242c  0000342c  2**2
                  CONTENTS, ALLOC, LOAD, READONLY, DATA
  9 .data         00000004  20000000  08002430  00004000  2**2
                  CONTENTS, ALLOC, LOAD, DATA
 10 .ccmram       00000000  10000000  10000000  00005048  2**0
                  CONTENTS
 11 .bss          000000b0  20000004  20000004  00006004  2**2
                  ALLOC
 12 ._user_heap_stack 00000604  200000b4  200000b4  00006004  2**0
                  ALLOC
 13 .ARM.attributes 00000030  00000000  00000000  00005048  2**0
                  CONTENTS, READONLY
 14 .comment      00000043  00000000  00000000  00005078  2**0
                  CONTENTS, READONLY
 15 .debug_frame  0000002c  00000000  00000000  000050bc  2**2
                  CONTENTS, READONLY, DEBUGGING, OCTETS

Disassembly of section .text:

08000188 <__do_global_dtors_aux>:
 8000188:	b510      	push	{r4, lr}
 800018a:	4c05      	ldr	r4, [pc, #20]	@ (80001a0 <__do_global_dtors_aux+0x18>)
 800018c:	7823      	ldrb	r3, [r4, #0]
 800018e:	b933      	cbnz	r3, 800019e <__do_global_dtors_aux+0x16>
 8000190:	4b04      	ldr	r3, [pc, #16]	@ (80001a4 <__do_global_dtors_aux+0x1c>)
 8000192:	b113      	cbz	r3, 800019a <__do_global_dtors_aux+0x12>
 8000194:	4804      	ldr	r0, [pc, #16]	@ (80001a8 <__do_global_dtors_aux+0x20>)
 8000196:	f3af 8000 	nop.w
 800019a:	2301      	movs	r3, #1
 800019c:	7023      	strb	r3, [r4, #0]
 800019e:	bd10      	pop	{r4, pc}
 80001a0:	20000004 	.word	0x20000004
 80001a4:	00000000 	.word	0x00000000
 80001a8:	08002400 	.word	0x08002400

080001ac <frame_dummy>:
 80001ac:	b508      	push	{r3, lr}
 80001ae:	4b03      	ldr	r3, [pc, #12]	@ (80001bc <frame_dummy+0x10>)
 80001b0:	b11b      	cbz	r3, 80001ba <frame_dummy+0xe>
 80001b2:	4903      	ldr	r1, [pc, #12]	@ (80001c0 <frame_dummy+0x14>)
 80001b4:	4803      	ldr	r0, [pc, #12]	@ (80001c4 <frame_dummy+0x18>)
 80001b6:	f3af 8000 	nop.w
 80001ba:	bd08      	pop	{r3, pc}
 80001bc:	00000000 	.word	0x00000000
 80001c0:	20000008 	.word	0x20000008
 80001c4:	08002400 	.word	0x08002400

080001c8 <CRC_Init>:
 80001c8:	b480      	push	{r7}
 80001ca:	af00      	add	r7, sp, #0
 80001cc:	4b05      	ldr	r3, [pc, #20]	@ (80001e4 <CRC_Init+0x1c>)
 80001ce:	6b1b      	ldr	r3, [r3, #48]	@ 0x30
 80001d0:	4a04      	ldr	r2, [pc, #16]	@ (80001e4 <CRC_Init+0x1c>)
 80001d2:	f443 5380 	orr.w	r3, r3, #4096	@ 0x1000
 80001d6:	6313      	str	r3, [r2, #48]	@ 0x30
 80001d8:	bf00      	nop
 80001da:	46bd      	mov	sp, r7
 80001dc:	f85d 7b04 	ldr.w	r7, [sp], #4
 80001e0:	4770      	bx	lr
 80001e2:	bf00      	nop
 80001e4:	40023800 	.word	0x40023800

080001e8 <DMA1_Stream0_IRQHandler>:
 80001e8:	b580      	push	{r7, lr}
 80001ea:	af00      	add	r7, sp, #0
 80001ec:	4b60      	ldr	r3, [pc, #384]	@ (8000370 <DMA1_Stream0_IRQHandler+0x188>)
 80001ee:	681b      	ldr	r3, [r3, #0]
 80001f0:	4a60      	ldr	r2, [pc, #384]	@ (8000374 <DMA1_Stream0_IRQHandler+0x18c>)
 80001f2:	6013      	str	r3, [r2, #0]
 80001f4:	4b5f      	ldr	r3, [pc, #380]	@ (8000374 <DMA1_Stream0_IRQHandler+0x18c>)
 80001f6:	681b      	ldr	r3, [r3, #0]
 80001f8:	f003 0301 	and.w	r3, r3, #1
 80001fc:	2b00      	cmp	r3, #0
 80001fe:	d015      	beq.n	800022c <DMA1_Stream0_IRQHandler+0x44>
 8000200:	4b5d      	ldr	r3, [pc, #372]	@ (8000378 <DMA1_Stream0_IRQHandler+0x190>)
 8000202:	681b      	ldr	r3, [r3, #0]
 8000204:	69db      	ldr	r3, [r3, #28]
 8000206:	2280      	movs	r2, #128	@ 0x80
 8000208:	4013      	ands	r3, r2
 800020a:	2b00      	cmp	r3, #0
 800020c:	d00e      	beq.n	800022c <DMA1_Stream0_IRQHandler+0x44>
 800020e:	4b5a      	ldr	r3, [pc, #360]	@ (8000378 <DMA1_Stream0_IRQHandler+0x190>)
 8000210:	681b      	ldr	r3, [r3, #0]
 8000212:	6bdb      	ldr	r3, [r3, #60]	@ 0x3c
 8000214:	2b00      	cmp	r3, #0
 8000216:	d009      	beq.n	800022c <DMA1_Stream0_IRQHandler+0x44>
 8000218:	4b57      	ldr	r3, [pc, #348]	@ (8000378 <DMA1_Stream0_IRQHandler+0x190>)
 800021a:	681b      	ldr	r3, [r3, #0]
 800021c:	6bdb      	ldr	r3, [r3, #60]	@ 0x3c
 800021e:	4798      	blx	r3
 8000220:	4b53      	ldr	r3, [pc, #332]	@ (8000370 <DMA1_Stream0_IRQHandler+0x188>)
 8000222:	689b      	ldr	r3, [r3, #8]
 8000224:	4a52      	ldr	r2, [pc, #328]	@ (8000370 <DMA1_Stream0_IRQHandler+0x188>)
 8000226:	f043 0301 	orr.w	r3, r3, #1
 800022a:	6093      	str	r3, [r2, #8]
 800022c:	4b51      	ldr	r3, [pc, #324]	@ (8000374 <DMA1_Stream0_IRQHandler+0x18c>)
 800022e:	681b      	ldr	r3, [r3, #0]
 8000230:	f003 0304 	and.w	r3, r3, #4
 8000234:	2b00      	cmp	r3, #0
 8000236:	d015      	beq.n	8000264 <DMA1_Stream0_IRQHandler+0x7c>
 8000238:	4b4f      	ldr	r3, [pc, #316]	@ (8000378 <DMA1_Stream0_IRQHandler+0x190>)
 800023a:	681b      	ldr	r3, [r3, #0]
 800023c:	69db      	ldr	r3, [r3, #28]
 800023e:	2202      	movs	r2, #2
 8000240:	4013      	ands	r3, r2
 8000242:	2b00      	cmp	r3, #0
 8000244:	d00e      	beq.n	8000264 <DMA1_Stream0_IRQHandler+0x7c>
 8000246:	4b4c      	ldr	r3, [pc, #304]	@ (8000378 <DMA1_Stream0_IRQHandler+0x190>)
 8000248:	681b      	ldr	r3, [r3, #0]
 800024a:	6c1b      	ldr	r3, [r3, #64]	@ 0x40
 800024c:	2b00      	cmp	r3, #0
 800024e:	d009      	beq.n	8000264 <DMA1_Stream0_IRQHandler+0x7c>
 8000250:	4b49      	ldr	r3, [pc, #292]	@ (8000378 <DMA1_Stream0_IRQHandler+0x190>)
 8000252:	681b      	ldr	r3, [r3, #0]
 8000254:	6c1b      	ldr	r3, [r3, #64]	@ 0x40
 8000256:	4798      	blx	r3
 8000258:	4b45      	ldr	r3, [pc, #276]	@ (8000370 <DMA1_Stream0_IRQHandler+0x188>)
 800025a:	689b      	ldr	r3, [r3, #8]
 800025c:	4a44      	ldr	r2, [pc, #272]	@ (8000370 <DMA1_Stream0_IRQHandler+0x188>)
 800025e:	f043 0304 	orr.w	r3, r3, #4
 8000262:	6093      	str	r3, [r2, #8]
 8000264:	4b43      	ldr	r3, [pc, #268]	@ (8000374 <DMA1_Stream0_IRQHandler+0x18c>)
 8000266:	681b      	ldr	r3, [r3, #0]
 8000268:	f003 0308 	and.w	r3, r3, #8
 800026c:	2b00      	cmp	r3, #0
 800026e:	d015      	beq.n	800029c <DMA1_Stream0_IRQHandler+0xb4>
 8000270:	4b41      	ldr	r3, [pc, #260]	@ (8000378 <DMA1_Stream0_IRQHandler+0x190>)
 8000272:	681b      	ldr	r3, [r3, #0]
 8000274:	69db      	ldr	r3, [r3, #28]
 8000276:	2204      	movs	r2, #4
 8000278:	4013      	ands	r3, r2
 800027a:	2b00      	cmp	r3, #0
 800027c:	d00e      	beq.n	800029c <DMA1_Stream0_IRQHandler+0xb4>
 800027e:	4b3e      	ldr	r3, [pc, #248]	@ (8000378 <DMA1_Stream0_IRQHandler+0x190>)
 8000280:	681b      	ldr	r3, [r3, #0]
 8000282:	6c5b      	ldr	r3, [r3, #68]	@ 0x44
 8000284:	2b00      	cmp	r3, #0
 8000286:	d009      	beq.n	800029c <DMA1_Stream0_IRQHandler+0xb4>
 8000288:	4b3b      	ldr	r3, [pc, #236]	@ (8000378 <DMA1_Stream0_IRQHandler+0x190>)
 800028a:	681b      	ldr	r3, [r3, #0]
 800028c:	6c5b      	ldr	r3, [r3, #68]	@ 0x44
 800028e:	4798      	blx	r3
 8000290:	4b37      	ldr	r3, [pc, #220]	@ (8000370 <DMA1_Stream0_IRQHandler+0x188>)
 8000292:	689b      	ldr	r3, [r3, #8]
 8000294:	4a36      	ldr	r2, [pc, #216]	@ (8000370 <DMA1_Stream0_IRQHandler+0x188>)
 8000296:	f043 0308 	orr.w	r3, r3, #8
 800029a:	6093      	str	r3, [r2, #8]
 800029c:	4b35      	ldr	r3, [pc, #212]	@ (8000374 <DMA1_Stream0_IRQHandler+0x18c>)
 800029e:	681b      	ldr	r3, [r3, #0]
 80002a0:	f003 0310 	and.w	r3, r3, #16
 80002a4:	2b00      	cmp	r3, #0
 80002a6:	d02d      	beq.n	8000304 <DMA1_Stream0_IRQHandler+0x11c>
 80002a8:	4b33      	ldr	r3, [pc, #204]	@ (8000378 <DMA1_Stream0_IRQHandler+0x190>)
 80002aa:	681b      	ldr	r3, [r3, #0]
 80002ac:	69db      	ldr	r3, [r3, #28]
 80002ae:	2208      	movs	r2, #8
 80002b0:	4013      	ands	r3, r2
 80002b2:	2b00      	cmp	r3, #0
 80002b4:	d026      	beq.n	8000304 <DMA1_Stream0_IRQHandler+0x11c>
 80002b6:	4b30      	ldr	r3, [pc, #192]	@ (8000378 <DMA1_Stream0_IRQHandler+0x190>)
 80002b8:	681b      	ldr	r3, [r3, #0]
 80002ba:	6c9b      	ldr	r3, [r3, #72]	@ 0x48
 80002bc:	2b00      	cmp	r3, #0
 80002be:	d021      	beq.n	8000304 <DMA1_Stream0_IRQHandler+0x11c>
 80002c0:	4b2d      	ldr	r3, [pc, #180]	@ (8000378 <DMA1_Stream0_IRQHandler+0x190>)
 80002c2:	681b      	ldr	r3, [r3, #0]
 80002c4:	6c9b      	ldr	r3, [r3, #72]	@ 0x48
 80002c6:	4798      	blx	r3
 80002c8:	4b29      	ldr	r3, [pc, #164]	@ (8000370 <DMA1_Stream0_IRQHandler+0x188>)
 80002ca:	689b      	ldr	r3, [r3, #8]
 80002cc:	4a28      	ldr	r2, [pc, #160]	@ (8000370 <DMA1_Stream0_IRQHandler+0x188>)
 80002ce:	f043 0310 	orr.w	r3, r3, #16
 80002d2:	6093      	str	r3, [r2, #8]
 80002d4:	4b28      	ldr	r3, [pc, #160]	@ (8000378 <DMA1_Stream0_IRQHandler+0x190>)
 80002d6:	681b      	ldr	r3, [r3, #0]
 80002d8:	6b9b      	ldr	r3, [r3, #56]	@ 0x38
 80002da:	f44f 2280 	mov.w	r2, #262144	@ 0x40000
 80002de:	4293      	cmp	r3, r2
 80002e0:	d110      	bne.n	8000304 <DMA1_Stream0_IRQHandler+0x11c>
 80002e2:	4b25      	ldr	r3, [pc, #148]	@ (8000378 <DMA1_Stream0_IRQHandler+0x190>)
 80002e4:	681b      	ldr	r3, [r3, #0]
 80002e6:	685b      	ldr	r3, [r3, #4]
 80002e8:	681b      	ldr	r3, [r3, #0]
 80002ea:	f403 2380 	and.w	r3, r3, #262144	@ 0x40000
 80002ee:	2b00      	cmp	r3, #0
 80002f0:	d004      	beq.n	80002fc <DMA1_Stream0_IRQHandler+0x114>
 80002f2:	4b21      	ldr	r3, [pc, #132]	@ (8000378 <DMA1_Stream0_IRQHandler+0x190>)
 80002f4:	681b      	ldr	r3, [r3, #0]
 80002f6:	6d1b      	ldr	r3, [r3, #80]	@ 0x50
 80002f8:	4798      	blx	r3
 80002fa:	e003      	b.n	8000304 <DMA1_Stream0_IRQHandler+0x11c>
 80002fc:	4b1e      	ldr	r3, [pc, #120]	@ (8000378 <DMA1_Stream0_IRQHandler+0x190>)
 80002fe:	681b      	ldr	r3, [r3, #0]
 8000300:	6d5b      	ldr	r3, [r3, #84]	@ 0x54
 8000302:	4798      	blx	r3
 8000304:	4b1b      	ldr	r3, [pc, #108]	@ (8000374 <DMA1_Stream0_IRQHandler+0x18c>)
 8000306:	681b      	ldr	r3, [r3, #0]
 8000308:	f003 0320 	and.w	r3, r3, #32
 800030c:	2b00      	cmp	r3, #0
 800030e:	d02d      	beq.n	800036c <DMA1_Stream0_IRQHandler+0x184>
 8000310:	4b19      	ldr	r3, [pc, #100]	@ (8000378 <DMA1_Stream0_IRQHandler+0x190>)
 8000312:	681b      	ldr	r3, [r3, #0]
 8000314:	69db      	ldr	r3, [r3, #28]
 8000316:	2210      	movs	r2, #16
 8000318:	4013      	ands	r3, r2
 800031a:	2b00      	cmp	r3, #0
 800031c:	d026      	beq.n	800036c <DMA1_Stream0_IRQHandler+0x184>
 800031e:	4b16      	ldr	r3, [pc, #88]	@ (8000378 <DMA1_Stream0_IRQHandler+0x190>)
 8000320:	681b      	ldr	r3, [r3, #0]
 8000322:	6cdb      	ldr	r3, [r3, #76]	@ 0x4c
 8000324:	2b00      	cmp	r3, #0
 8000326:	d021      	beq.n	800036c <DMA1_Stream0_IRQHandler+0x184>
 8000328:	4b13      	ldr	r3, [pc, #76]	@ (8000378 <DMA1_Stream0_IRQHandler+0x190>)
 800032a:	681b      	ldr	r3, [r3, #0]
 800032c:	6cdb      	ldr	r3, [r3, #76]	@ 0x4c
 800032e:	4798      	blx	r3
 8000330:	4b0f      	ldr	r3, [pc, #60]	@ (8000370 <DMA1_Stream0_IRQHandler+0x188>)
 8000332:	689b      	ldr	r3, [r3, #8]
 8000334:	4a0e      	ldr	r2, [pc, #56]	@ (8000370 <DMA1_Stream0_IRQHandler+0x188>)
 8000336:	f043 0320 	orr.w	r3, r3, #32
 800033a:	6093      	str	r3, [r2, #8]
 800033c:	4b0e      	ldr	r3, [pc, #56]	@ (8000378 <DMA1_Stream0_IRQHandler+0x190>)
 800033e:	681b      	ldr	r3, [r3, #0]
 8000340:	6b9b      	ldr	r3, [r3, #56]	@ 0x38
 8000342:	f44f 2280 	mov.w	r2, #262144	@ 0x40000
 8000346:	4293      	cmp	r3, r2
 8000348:	d110      	bne.n	800036c <DMA1_Stream0_IRQHandler+0x184>
 800034a:	4b0b      	ldr	r3, [pc, #44]	@ (8000378 <DMA1_Stream0_IRQHandler+0x190>)
 800034c:	681b      	ldr	r3, [r3, #0]
 800034e:	685b      	ldr	r3, [r3, #4]
 8000350:	681b      	ldr	r3, [r3, #0]
 8000352:	f403 2380 	and.w	r3, r3, #262144	@ 0x40000
 8000356:	2b00      	cmp	r3, #0
 8000358:	d004      	beq.n	8000364 <DMA1_Stream0_IRQHandler+0x17c>
 800035a:	4b07      	ldr	r3, [pc, #28]	@ (8000378 <DMA1_Stream0_IRQHandler+0x190>)
 800035c:	681b      	ldr	r3, [r3, #0]
 800035e:	6d1b      	ldr	r3, [r3, #80]	@ 0x50
 8000360:	4798      	blx	r3
 8000362:	e003      	b.n	800036c <DMA1_Stream0_IRQHandler+0x184>
 8000364:	4b04      	ldr	r3, [pc, #16]	@ (8000378 <DMA1_Stream0_IRQHandler+0x190>)
 8000366:	681b      	ldr	r3, [r3, #0]
 8000368:	6d5b      	ldr	r3, [r3, #84]	@ 0x54
 800036a:	4798      	blx	r3
 800036c:	bf00      	nop
 800036e:	bd80      	pop	{r7, pc}
 8000370:	40026000 	.word	0x40026000
 8000374:	20000060 	.word	0x20000060
 8000378:	20000020 	.word	0x20000020

0800037c <DMA1_Stream1_IRQHandler>:
 800037c:	b580      	push	{r7, lr}
 800037e:	af00      	add	r7, sp, #0
 8000380:	4b60      	ldr	r3, [pc, #384]	@ (8000504 <DMA1_Stream1_IRQHandler+0x188>)
 8000382:	681b      	ldr	r3, [r3, #0]
 8000384:	4a60      	ldr	r2, [pc, #384]	@ (8000508 <DMA1_Stream1_IRQHandler+0x18c>)
 8000386:	6013      	str	r3, [r2, #0]
 8000388:	4b5f      	ldr	r3, [pc, #380]	@ (8000508 <DMA1_Stream1_IRQHandler+0x18c>)
 800038a:	681b      	ldr	r3, [r3, #0]
 800038c:	f003 0340 	and.w	r3, r3, #64	@ 0x40
 8000390:	2b00      	cmp	r3, #0
 8000392:	d015      	beq.n	80003c0 <DMA1_Stream1_IRQHandler+0x44>
 8000394:	4b5d      	ldr	r3, [pc, #372]	@ (800050c <DMA1_Stream1_IRQHandler+0x190>)
 8000396:	681b      	ldr	r3, [r3, #0]
 8000398:	69db      	ldr	r3, [r3, #28]
 800039a:	2280      	movs	r2, #128	@ 0x80
 800039c:	4013      	ands	r3, r2
 800039e:	2b00      	cmp	r3, #0
 80003a0:	d00e      	beq.n	80003c0 <DMA1_Stream1_IRQHandler+0x44>
 80003a2:	4b5a      	ldr	r3, [pc, #360]	@ (800050c <DMA1_Stream1_IRQHandler+0x190>)
 80003a4:	681b      	ldr	r3, [r3, #0]
 80003a6:	6bdb      	ldr	r3, [r3, #60]	@ 0x3c
 80003a8:	2b00      	cmp	r3, #0
 80003aa:	d009      	beq.n	80003c0 <DMA1_Stream1_IRQHandler+0x44>
 80003ac:	4b57      	ldr	r3, [pc, #348]	@ (800050c <DMA1_Stream1_IRQHandler+0x190>)
 80003ae:	681b      	ldr	r3, [r3, #0]
 80003b0:	6bdb      	ldr	r3, [r3, #60]	@ 0x3c
 80003b2:	4798      	blx	r3
 80003b4:	4b53      	ldr	r3, [pc, #332]	@ (8000504 <DMA1_Stream1_IRQHandler+0x188>)
 80003b6:	689b      	ldr	r3, [r3, #8]
 80003b8:	4a52      	ldr	r2, [pc, #328]	@ (8000504 <DMA1_Stream1_IRQHandler+0x188>)
 80003ba:	f043 0340 	orr.w	r3, r3, #64	@ 0x40
 80003be:	6093      	str	r3, [r2, #8]
 80003c0:	4b51      	ldr	r3, [pc, #324]	@ (8000508 <DMA1_Stream1_IRQHandler+0x18c>)
 80003c2:	681b      	ldr	r3, [r3, #0]
 80003c4:	f403 7380 	and.w	r3, r3, #256	@ 0x100
 80003c8:	2b00      	cmp	r3, #0
 80003ca:	d015      	beq.n	80003f8 <DMA1_Stream1_IRQHandler+0x7c>
 80003cc:	4b4f      	ldr	r3, [pc, #316]	@ (800050c <DMA1_Stream1_IRQHandler+0x190>)
 80003ce:	681b      	ldr	r3, [r3, #0]
 80003d0:	69db      	ldr	r3, [r3, #28]
 80003d2:	2202      	movs	r2, #2
 80003d4:	4013      	ands	r3, r2
 80003d6:	2b00      	cmp	r3, #0
 80003d8:	d00e      	beq.n	80003f8 <DMA1_Stream1_IRQHandler+0x7c>
 80003da:	4b4c      	ldr	r3, [pc, #304]	@ (800050c <DMA1_Stream1_IRQHandler+0x190>)
 80003dc:	681b      	ldr	r3, [r3, #0]
 80003de:	6c1b      	ldr	r3, [r3, #64]	@ 0x40
 80003e0:	2b00      	cmp	r3, #0
 80003e2:	d009      	beq.n	80003f8 <DMA1_Stream1_IRQHandler+0x7c>
 80003e4:	4b49      	ldr	r3, [pc, #292]	@ (800050c <DMA1_Stream1_IRQHandler+0x190>)
 80003e6:	681b      	ldr	r3, [r3, #0]
 80003e8:	6c1b      	ldr	r3, [r3, #64]	@ 0x40
 80003ea:	4798      	blx	r3
 80003ec:	4b45      	ldr	r3, [pc, #276]	@ (8000504 <DMA1_Stream1_IRQHandler+0x188>)
 80003ee:	689b      	ldr	r3, [r3, #8]
 80003f0:	4a44      	ldr	r2, [pc, #272]	@ (8000504 <DMA1_Stream1_IRQHandler+0x188>)
 80003f2:	f443 7380 	orr.w	r3, r3, #256	@ 0x100
 80003f6:	6093      	str	r3, [r2, #8]
 80003f8:	4b43      	ldr	r3, [pc, #268]	@ (8000508 <DMA1_Stream1_IRQHandler+0x18c>)
 80003fa:	681b      	ldr	r3, [r3, #0]
 80003fc:	f403 7300 	and.w	r3, r3, #512	@ 0x200
 8000400:	2b00      	cmp	r3, #0
 8000402:	d015      	beq.n	8000430 <DMA1_Stream1_IRQHandler+0xb4>
 8000404:	4b41      	ldr	r3, [pc, #260]	@ (800050c <DMA1_Stream1_IRQHandler+0x190>)
 8000406:	681b      	ldr	r3, [r3, #0]
 8000408:	69db      	ldr	r3, [r3, #28]
 800040a:	2204      	movs	r2, #4
 800040c:	4013      	ands	r3, r2
 800040e:	2b00      	cmp	r3, #0
 8000410:	d00e      	beq.n	8000430 <DMA1_Stream1_IRQHandler+0xb4>
 8000412:	4b3e      	ldr	r3, [pc, #248]	@ (800050c <DMA1_Stream1_IRQHandler+0x190>)
 8000414:	681b      	ldr	r3, [r3, #0]
 8000416:	6c5b      	ldr	r3, [r3, #68]	@ 0x44
 8000418:	2b00      	cmp	r3, #0
 800041a:	d009      	beq.n	8000430 <DMA1_Stream1_IRQHandler+0xb4>
 800041c:	4b3b      	ldr	r3, [pc, #236]	@ (800050c <DMA1_Stream1_IRQHandler+0x190>)
 800041e:	681b      	ldr	r3, [r3, #0]
 8000420:	6c5b      	ldr	r3, [r3, #68]	@ 0x44
 8000422:	4798      	blx	r3
 8000424:	4b37      	ldr	r3, [pc, #220]	@ (8000504 <DMA1_Stream1_IRQHandler+0x188>)
 8000426:	689b      	ldr	r3, [r3, #8]
 8000428:	4a36      	ldr	r2, [pc, #216]	@ (8000504 <DMA1_Stream1_IRQHandler+0x188>)
 800042a:	f443 7300 	orr.w	r3, r3, #512	@ 0x200
 800042e:	6093      	str	r3, [r2, #8]
 8000430:	4b35      	ldr	r3, [pc, #212]	@ (8000508 <DMA1_Stream1_IRQHandler+0x18c>)
 8000432:	681b      	ldr	r3, [r3, #0]
 8000434:	f403 6380 	and.w	r3, r3, #1024	@ 0x400
 8000438:	2b00      	cmp	r3, #0
 800043a:	d02d      	beq.n	8000498 <DMA1_Stream1_IRQHandler+0x11c>
 800043c:	4b33      	ldr	r3, [pc, #204]	@ (800050c <DMA1_Stream1_IRQHandler+0x190>)
 800043e:	681b      	ldr	r3, [r3, #0]
 8000440:	69db      	ldr	r3, [r3, #28]
 8000442:	2208      	movs	r2, #8
 8000444:	4013      	ands	r3, r2
 8000446:	2b00      	cmp	r3, #0
 8000448:	d026      	beq.n	8000498 <DMA1_Stream1_IRQHandler+0x11c>
 800044a:	4b30      	ldr	r3, [pc, #192]	@ (800050c <DMA1_Stream1_IRQHandler+0x190>)
 800044c:	681b      	ldr	r3, [r3, #0]
 800044e:	6c9b      	ldr	r3, [r3, #72]	@ 0x48
 8000450:	2b00      	cmp	r3, #0
 8000452:	d021      	beq.n	8000498 <DMA1_Stream1_IRQHandler+0x11c>
 8000454:	4b2d      	ldr	r3, [pc, #180]	@ (800050c <DMA1_Stream1_IRQHandler+0x190>)
 8000456:	681b      	ldr	r3, [r3, #0]
 8000458:	6c9b      	ldr	r3, [r3, #72]	@ 0x48
 800045a:	4798      	blx	r3
 800045c:	4b29      	ldr	r3, [pc, #164]	@ (8000504 <DMA1_Stream1_IRQHandler+0x188>)
 800045e:	689b      	ldr	r3, [r3, #8]
 8000460:	4a28      	ldr	r2, [pc, #160]	@ (8000504 <DMA1_Stream1_IRQHandler+0x188>)
 8000462:	f443 6380 	orr.w	r3, r3, #1024	@ 0x400
 8000466:	6093      	str	r3, [r2, #8]
 8000468:	4b28      	ldr	r3, [pc, #160]	@ (800050c <DMA1_Stream1_IRQHandler+0x190>)
 800046a:	681b      	ldr	r3, [r3, #0]
 800046c:	6b9b      	ldr	r3, [r3, #56]	@ 0x38
 800046e:	f44f 2280 	mov.w	r2, #262144	@ 0x40000
 8000472:	4293      	cmp	r3, r2
 8000474:	d110      	bne.n	8000498 <DMA1_Stream1_IRQHandler+0x11c>
 8000476:	4b25      	ldr	r3, [pc, #148]	@ (800050c <DMA1_Stream1_IRQHandler+0x190>)
 8000478:	681b      	ldr	r3, [r3, #0]
 800047a:	685b      	ldr	r3, [r3, #4]
 800047c:	681b      	ldr	r3, [r3, #0]
 800047e:	f403 2380 	and.w	r3, r3, #262144	@ 0x40000
 8000482:	2b00      	cmp	r3, #0
 8000484:	d004      	beq.n	8000490 <DMA1_Stream1_IRQHandler+0x114>
 8000486:	4b21      	ldr	r3, [pc, #132]	@ (800050c <DMA1_Stream1_IRQHandler+0x190>)
 8000488:	681b      	ldr	r3, [r3, #0]
 800048a:	6d1b      	ldr	r3, [r3, #80]	@ 0x50
 800048c:	4798      	blx	r3
 800048e:	e003      	b.n	8000498 <DMA1_Stream1_IRQHandler+0x11c>
 8000490:	4b1e      	ldr	r3, [pc, #120]	@ (800050c <DMA1_Stream1_IRQHandler+0x190>)
 8000492:	681b      	ldr	r3, [r3, #0]
 8000494:	6d5b      	ldr	r3, [r3, #84]	@ 0x54
 8000496:	4798      	blx	r3
 8000498:	4b1b      	ldr	r3, [pc, #108]	@ (8000508 <DMA1_Stream1_IRQHandler+0x18c>)
 800049a:	681b      	ldr	r3, [r3, #0]
 800049c:	f403 6300 	and.w	r3, r3, #2048	@ 0x800
 80004a0:	2b00      	cmp	r3, #0
 80004a2:	d02d      	beq.n	8000500 <DMA1_Stream1_IRQHandler+0x184>
 80004a4:	4b19      	ldr	r3, [pc, #100]	@ (800050c <DMA1_Stream1_IRQHandler+0x190>)
 80004a6:	681b      	ldr	r3, [r3, #0]
 80004a8:	69db      	ldr	r3, [r3, #28]
 80004aa:	2210      	movs	r2, #16
 80004ac:	4013      	ands	r3, r2
 80004ae:	2b00      	cmp	r3, #0
 80004b0:	d026      	beq.n	8000500 <DMA1_Stream1_IRQHandler+0x184>
 80004b2:	4b16      	ldr	r3, [pc, #88]	@ (800050c <DMA1_Stream1_IRQHandler+0x190>)
 80004b4:	681b      	ldr	r3, [r3, #0]
 80004b6:	6cdb      	ldr	r3, [r3, #76]	@ 0x4c
 80004b8:	2b00      	cmp	r3, #0
 80004ba:	d021      	beq.n	8000500 <DMA1_Stream1_IRQHandler+0x184>
 80004bc:	4b13      	ldr	r3, [pc, #76]	@ (800050c <DMA1_Stream1_IRQHandler+0x190>)
 80004be:	681b      	ldr	r3, [r3, #0]
 80004c0:	6cdb      	ldr	r3, [r3, #76]	@ 0x4c
 80004c2:	4798      	blx	r3
 80004c4:	4b0f      	ldr	r3, [pc, #60]	@ (8000504 <DMA1_Stream1_IRQHandler+0x188>)
 80004c6:	689b      	ldr	r3, [r3, #8]
 80004c8:	4a0e      	ldr	r2, [pc, #56]	@ (8000504 <DMA1_Stream1_IRQHandler+0x188>)
 80004ca:	f443 6300 	orr.w	r3, r3, #2048	@ 0x800
 80004ce:	6093      	str	r3, [r2, #8]
 80004d0:	4b0e      	ldr	r3, [pc, #56]	@ (800050c <DMA1_Stream1_IRQHandler+0x190>)
 80004d2:	681b      	ldr	r3, [r3, #0]
 80004d4:	6b9b      	ldr	r3, [r3, #56]	@ 0x38
 80004d6:	f44f 2280 	mov.w	r2, #262144	@ 0x40000
 80004da:	4293      	cmp	r3, r2
 80004dc:	d110      	bne.n	8000500 <DMA1_Stream1_IRQHandler+0x184>
 80004de:	4b0b      	ldr	r3, [pc, #44]	@ (800050c <DMA1_Stream1_IRQHandler+0x190>)
 80004e0:	681b      	ldr	r3, [r3, #0]
 80004e2:	685b      	ldr	r3, [r3, #4]
 80004e4:	681b      	ldr	r3, [r3, #0]
 80004e6:	f403 2380 	and.w	r3, r3, #262144	@ 0x40000
 80004ea:	2b00      	cmp	r3, #0
 80004ec:	d004      	beq.n	80004f8 <DMA1_Stream1_IRQHandler+0x17c>
 80004ee:	4b07      	ldr	r3, [pc, #28]	@ (800050c <DMA1_Stream1_IRQHandler+0x190>)
 80004f0:	681b      	ldr	r3, [r3, #0]
 80004f2:	6d1b      	ldr	r3, [r3, #80]	@ 0x50
 80004f4:	4798      	blx	r3
 80004f6:	e003      	b.n	8000500 <DMA1_Stream1_IRQHandler+0x184>
 80004f8:	4b04      	ldr	r3, [pc, #16]	@ (800050c <DMA1_Stream1_IRQHandler+0x190>)
 80004fa:	681b      	ldr	r3, [r3, #0]
 80004fc:	6d5b      	ldr	r3, [r3, #84]	@ 0x54
 80004fe:	4798      	blx	r3
 8000500:	bf00      	nop
 8000502:	bd80      	pop	{r7, pc}
 8000504:	40026000 	.word	0x40026000
 8000508:	20000060 	.word	0x20000060
 800050c:	20000024 	.word	0x20000024

08000510 <DMA1_Stream2_IRQHandler>:
 8000510:	b580      	push	{r7, lr}
 8000512:	af00      	add	r7, sp, #0
 8000514:	4b64      	ldr	r3, [pc, #400]	@ (80006a8 <DMA1_Stream2_IRQHandler+0x198>)
 8000516:	681b      	ldr	r3, [r3, #0]
 8000518:	4a64      	ldr	r2, [pc, #400]	@ (80006ac <DMA1_Stream2_IRQHandler+0x19c>)
 800051a:	6013      	str	r3, [r2, #0]
 800051c:	4b63      	ldr	r3, [pc, #396]	@ (80006ac <DMA1_Stream2_IRQHandler+0x19c>)
 800051e:	681b      	ldr	r3, [r3, #0]
 8000520:	f403 3380 	and.w	r3, r3, #65536	@ 0x10000
 8000524:	2b00      	cmp	r3, #0
 8000526:	d015      	beq.n	8000554 <DMA1_Stream2_IRQHandler+0x44>
 8000528:	4b61      	ldr	r3, [pc, #388]	@ (80006b0 <DMA1_Stream2_IRQHandler+0x1a0>)
 800052a:	681b      	ldr	r3, [r3, #0]
 800052c:	69db      	ldr	r3, [r3, #28]
 800052e:	2280      	movs	r2, #128	@ 0x80
 8000530:	4013      	ands	r3, r2
 8000532:	2b00      	cmp	r3, #0
 8000534:	d00e      	beq.n	8000554 <DMA1_Stream2_IRQHandler+0x44>
 8000536:	4b5e      	ldr	r3, [pc, #376]	@ (80006b0 <DMA1_Stream2_IRQHandler+0x1a0>)
 8000538:	681b      	ldr	r3, [r3, #0]
 800053a:	6bdb      	ldr	r3, [r3, #60]	@ 0x3c
 800053c:	2b00      	cmp	r3, #0
 800053e:	d009      	beq.n	8000554 <DMA1_Stream2_IRQHandler+0x44>
 8000540:	4b5b      	ldr	r3, [pc, #364]	@ (80006b0 <DMA1_Stream2_IRQHandler+0x1a0>)
 8000542:	681b      	ldr	r3, [r3, #0]
 8000544:	6bdb      	ldr	r3, [r3, #60]	@ 0x3c
 8000546:	4798      	blx	r3
 8000548:	4b57      	ldr	r3, [pc, #348]	@ (80006a8 <DMA1_Stream2_IRQHandler+0x198>)
 800054a:	689b      	ldr	r3, [r3, #8]
 800054c:	4a56      	ldr	r2, [pc, #344]	@ (80006a8 <DMA1_Stream2_IRQHandler+0x198>)
 800054e:	f443 3380 	orr.w	r3, r3, #65536	@ 0x10000
 8000552:	6093      	str	r3, [r2, #8]
 8000554:	4b55      	ldr	r3, [pc, #340]	@ (80006ac <DMA1_Stream2_IRQHandler+0x19c>)
 8000556:	681b      	ldr	r3, [r3, #0]
 8000558:	f403 2380 	and.w	r3, r3, #262144	@ 0x40000
 800055c:	2b00      	cmp	r3, #0
 800055e:	d015      	beq.n	800058c <DMA1_Stream2_IRQHandler+0x7c>
 8000560:	4b53      	ldr	r3, [pc, #332]	@ (80006b0 <DMA1_Stream2_IRQHandler+0x1a0>)
 8000562:	681b      	ldr	r3, [r3, #0]
 8000564:	69db      	ldr	r3, [r3, #28]
 8000566:	2202      	movs	r2, #2
 8000568:	4013      	ands	r3, r2
 800056a:	2b00      	cmp	r3, #0
 800056c:	d00e      	beq.n	800058c <DMA1_Stream2_IRQHandler+0x7c>
 800056e:	4b50      	ldr	r3, [pc, #320]	@ (80006b0 <DMA1_Stream2_IRQHandler+0x1a0>)
 8000570:	681b      	ldr	r3, [r3, #0]
 8000572:	6c1b      	ldr	r3, [r3, #64]	@ 0x40
 8000574:	2b00      	cmp	r3, #0
 8000576:	d009      	beq.n	800058c <DMA1_Stream2_IRQHandler+0x7c>
 8000578:	4b4d      	ldr	r3, [pc, #308]	@ (80006b0 <DMA1_Stream2_IRQHandler+0x1a0>)
 800057a:	681b      	ldr	r3, [r3, #0]
 800057c:	6c1b      	ldr	r3, [r3, #64]	@ 0x40
 800057e:	4798      	blx	r3
 8000580:	4b49      	ldr	r3, [pc, #292]	@ (80006a8 <DMA1_Stream2_IRQHandler+0x198>)
 8000582:	689b      	ldr	r3, [r3, #8]
 8000584:	4a48      	ldr	r2, [pc, #288]	@ (80006a8 <DMA1_Stream2_IRQHandler+0x198>)
 8000586:	f443 2380 	orr.w	r3, r3, #262144	@ 0x40000
 800058a:	6093      	str	r3, [r2, #8]
 800058c:	4b47      	ldr	r3, [pc, #284]	@ (80006ac <DMA1_Stream2_IRQHandler+0x19c>)
 800058e:	681b      	ldr	r3, [r3, #0]
 8000590:	f403 2300 	and.w	r3, r3, #524288	@ 0x80000
 8000594:	2b00      	cmp	r3, #0
 8000596:	d01c      	beq.n	80005d2 <DMA1_Stream2_IRQHandler+0xc2>
 8000598:	4b45      	ldr	r3, [pc, #276]	@ (80006b0 <DMA1_Stream2_IRQHandler+0x1a0>)
 800059a:	681b      	ldr	r3, [r3, #0]
 800059c:	69db      	ldr	r3, [r3, #28]
 800059e:	2204      	movs	r2, #4
 80005a0:	4013      	ands	r3, r2
 80005a2:	2b00      	cmp	r3, #0
 80005a4:	d015      	beq.n	80005d2 <DMA1_Stream2_IRQHandler+0xc2>
 80005a6:	4b42      	ldr	r3, [pc, #264]	@ (80006b0 <DMA1_Stream2_IRQHandler+0x1a0>)
 80005a8:	681b      	ldr	r3, [r3, #0]
 80005aa:	69db      	ldr	r3, [r3, #28]
 80005ac:	2204      	movs	r2, #4
 80005ae:	4013      	ands	r3, r2
 80005b0:	2b00      	cmp	r3, #0
 80005b2:	d00e      	beq.n	80005d2 <DMA1_Stream2_IRQHandler+0xc2>
 80005b4:	4b3e      	ldr	r3, [pc, #248]	@ (80006b0 <DMA1_Stream2_IRQHandler+0x1a0>)
 80005b6:	681b      	ldr	r3, [r3, #0]
 80005b8:	6c5b      	ldr	r3, [r3, #68]	@ 0x44
 80005ba:	2b00      	cmp	r3, #0
 80005bc:	d009      	beq.n	80005d2 <DMA1_Stream2_IRQHandler+0xc2>
 80005be:	4b3c      	ldr	r3, [pc, #240]	@ (80006b0 <DMA1_Stream2_IRQHandler+0x1a0>)
 80005c0:	681b      	ldr	r3, [r3, #0]
 80005c2:	6c5b      	ldr	r3, [r3, #68]	@ 0x44
 80005c4:	4798      	blx	r3
 80005c6:	4b38      	ldr	r3, [pc, #224]	@ (80006a8 <DMA1_Stream2_IRQHandler+0x198>)
 80005c8:	689b      	ldr	r3, [r3, #8]
 80005ca:	4a37      	ldr	r2, [pc, #220]	@ (80006a8 <DMA1_Stream2_IRQHandler+0x198>)
 80005cc:	f443 2300 	orr.w	r3, r3, #524288	@ 0x80000
 80005d0:	6093      	str	r3, [r2, #8]
 80005d2:	4b36      	ldr	r3, [pc, #216]	@ (80006ac <DMA1_Stream2_IRQHandler+0x19c>)
 80005d4:	681b      	ldr	r3, [r3, #0]
 80005d6:	f403 1380 	and.w	r3, r3, #1048576	@ 0x100000
 80005da:	2b00      	cmp	r3, #0
 80005dc:	d02d      	beq.n	800063a <DMA1_Stream2_IRQHandler+0x12a>
 80005de:	4b34      	ldr	r3, [pc, #208]	@ (80006b0 <DMA1_Stream2_IRQHandler+0x1a0>)
 80005e0:	681b      	ldr	r3, [r3, #0]
 80005e2:	69db      	ldr	r3, [r3, #28]
 80005e4:	2208      	movs	r2, #8
 80005e6:	4013      	ands	r3, r2
 80005e8:	2b00      	cmp	r3, #0
 80005ea:	d026      	beq.n	800063a <DMA1_Stream2_IRQHandler+0x12a>
 80005ec:	4b30      	ldr	r3, [pc, #192]	@ (80006b0 <DMA1_Stream2_IRQHandler+0x1a0>)
 80005ee:	681b      	ldr	r3, [r3, #0]
 80005f0:	6c9b      	ldr	r3, [r3, #72]	@ 0x48
 80005f2:	2b00      	cmp	r3, #0
 80005f4:	d021      	beq.n	800063a <DMA1_Stream2_IRQHandler+0x12a>
 80005f6:	4b2e      	ldr	r3, [pc, #184]	@ (80006b0 <DMA1_Stream2_IRQHandler+0x1a0>)
 80005f8:	681b      	ldr	r3, [r3, #0]
 80005fa:	6c9b      	ldr	r3, [r3, #72]	@ 0x48
 80005fc:	4798      	blx	r3
 80005fe:	4b2a      	ldr	r3, [pc, #168]	@ (80006a8 <DMA1_Stream2_IRQHandler+0x198>)
 8000600:	689b      	ldr	r3, [r3, #8]
 8000602:	4a29      	ldr	r2, [pc, #164]	@ (80006a8 <DMA1_Stream2_IRQHandler+0x198>)
 8000604:	f443 1380 	orr.w	r3, r3, #1048576	@ 0x100000
 8000608:	6093      	str	r3, [r2, #8]
 800060a:	4b29      	ldr	r3, [pc, #164]	@ (80006b0 <DMA1_Stream2_IRQHandler+0x1a0>)
 800060c:	681b      	ldr	r3, [r3, #0]
 800060e:	6b9b      	ldr	r3, [r3, #56]	@ 0x38
 8000610:	f44f 2280 	mov.w	r2, #262144	@ 0x40000
 8000614:	4293      	cmp	r3, r2
 8000616:	d110      	bne.n	800063a <DMA1_Stream2_IRQHandler+0x12a>
 8000618:	4b25      	ldr	r3, [pc, #148]	@ (80006b0 <DMA1_Stream2_IRQHandler+0x1a0>)
 800061a:	681b      	ldr	r3, [r3, #0]
 800061c:	685b      	ldr	r3, [r3, #4]
 800061e:	681b      	ldr	r3, [r3, #0]
 8000620:	f403 2380 	and.w	r3, r3, #262144	@ 0x40000
 8000624:	2b00      	cmp	r3, #0
 8000626:	d004      	beq.n	8000632 <DMA1_Stream2_IRQHandler+0x122>
 8000628:	4b21      	ldr	r3, [pc, #132]	@ (80006b0 <DMA1_Stream2_IRQHandler+0x1a0>)
 800062a:	681b      	ldr	r3, [r3, #0]
 800062c:	6d1b      	ldr	r3, [r3, #80]	@ 0x50
 800062e:	4798      	blx	r3
 8000630:	e003      	b.n	800063a <DMA1_Stream2_IRQHandler+0x12a>
 8000632:	4b1f      	ldr	r3, [pc, #124]	@ (80006b0 <DMA1_Stream2_IRQHandler+0x1a0>)
 8000634:	681b      	ldr	r3, [r3, #0]
 8000636:	6d5b      	ldr	r3, [r3, #84]	@ 0x54
 8000638:	4798      	blx	r3
 800063a:	4b1c      	ldr	r3, [pc, #112]	@ (80006ac <DMA1_Stream2_IRQHandler+0x19c>)
 800063c:	681b      	ldr	r3, [r3, #0]
 800063e:	f403 1300 	and.w	r3, r3, #2097152	@ 0x200000
 8000642:	2b00      	cmp	r3, #0
 8000644:	d02d      	beq.n	80006a2 <DMA1_Stream2_IRQHandler+0x192>
 8000646:	4b1a      	ldr	r3, [pc, #104]	@ (80006b0 <DMA1_Stream2_IRQHandler+0x1a0>)
 8000648:	681b      	ldr	r3, [r3, #0]
 800064a:	69db      	ldr	r3, [r3, #28]
 800064c:	2210      	movs	r2, #16
 800064e:	4013      	ands	r3, r2
 8000650:	2b00      	cmp	r3, #0
 8000652:	d026      	beq.n	80006a2 <DMA1_Stream2_IRQHandler+0x192>
 8000654:	4b16      	ldr	r3, [pc, #88]	@ (80006b0 <DMA1_Stream2_IRQHandler+0x1a0>)
 8000656:	681b      	ldr	r3, [r3, #0]
 8000658:	6cdb      	ldr	r3, [r3, #76]	@ 0x4c
 800065a:	2b00      	cmp	r3, #0
 800065c:	d021      	beq.n	80006a2 <DMA1_Stream2_IRQHandler+0x192>
 800065e:	4b14      	ldr	r3, [pc, #80]	@ (80006b0 <DMA1_Stream2_IRQHandler+0x1a0>)
 8000660:	681b      	ldr	r3, [r3, #0]
 8000662:	6cdb      	ldr	r3, [r3, #76]	@ 0x4c
 8000664:	4798      	blx	r3
 8000666:	4b10      	ldr	r3, [pc, #64]	@ (80006a8 <DMA1_Stream2_IRQHandler+0x198>)
 8000668:	689b      	ldr	r3, [r3, #8]
 800066a:	4a0f      	ldr	r2, [pc, #60]	@ (80006a8 <DMA1_Stream2_IRQHandler+0x198>)
 800066c:	f443 1300 	orr.w	r3, r3, #2097152	@ 0x200000
 8000670:	6093      	str	r3, [r2, #8]
 8000672:	4b0f      	ldr	r3, [pc, #60]	@ (80006b0 <DMA1_Stream2_IRQHandler+0x1a0>)
 8000674:	681b      	ldr	r3, [r3, #0]
 8000676:	6b9b      	ldr	r3, [r3, #56]	@ 0x38
 8000678:	f44f 2280 	mov.w	r2, #262144	@ 0x40000
 800067c:	4293      	cmp	r3, r2
 800067e:	d110      	bne.n	80006a2 <DMA1_Stream2_IRQHandler+0x192>
 8000680:	4b0b      	ldr	r3, [pc, #44]	@ (80006b0 <DMA1_Stream2_IRQHandler+0x1a0>)
 8000682:	681b      	ldr	r3, [r3, #0]
 8000684:	685b      	ldr	r3, [r3, #4]
 8000686:	681b      	ldr	r3, [r3, #0]
 8000688:	f403 2380 	and.w	r3, r3, #262144	@ 0x40000
 800068c:	2b00      	cmp	r3, #0
 800068e:	d004      	beq.n	800069a <DMA1_Stream2_IRQHandler+0x18a>
 8000690:	4b07      	ldr	r3, [pc, #28]	@ (80006b0 <DMA1_Stream2_IRQHandler+0x1a0>)
 8000692:	681b      	ldr	r3, [r3, #0]
 8000694:	6d1b      	ldr	r3, [r3, #80]	@ 0x50
 8000696:	4798      	blx	r3
 8000698:	e003      	b.n	80006a2 <DMA1_Stream2_IRQHandler+0x192>
 800069a:	4b05      	ldr	r3, [pc, #20]	@ (80006b0 <DMA1_Stream2_IRQHandler+0x1a0>)
 800069c:	681b      	ldr	r3, [r3, #0]
 800069e:	6d5b      	ldr	r3, [r3, #84]	@ 0x54
 80006a0:	4798      	blx	r3
 80006a2:	bf00      	nop
 80006a4:	bd80      	pop	{r7, pc}
 80006a6:	bf00      	nop
 80006a8:	40026000 	.word	0x40026000
 80006ac:	20000060 	.word	0x20000060
 80006b0:	20000028 	.word	0x20000028

080006b4 <DMA1_Stream3_IRQHandler>:
 80006b4:	b580      	push	{r7, lr}
 80006b6:	af00      	add	r7, sp, #0
 80006b8:	4b60      	ldr	r3, [pc, #384]	@ (800083c <DMA1_Stream3_IRQHandler+0x188>)
 80006ba:	681b      	ldr	r3, [r3, #0]
 80006bc:	4a60      	ldr	r2, [pc, #384]	@ (8000840 <DMA1_Stream3_IRQHandler+0x18c>)
 80006be:	6013      	str	r3, [r2, #0]
 80006c0:	4b5f      	ldr	r3, [pc, #380]	@ (8000840 <DMA1_Stream3_IRQHandler+0x18c>)
 80006c2:	681b      	ldr	r3, [r3, #0]
 80006c4:	f403 0380 	and.w	r3, r3, #4194304	@ 0x400000
 80006c8:	2b00      	cmp	r3, #0
 80006ca:	d015      	beq.n	80006f8 <DMA1_Stream3_IRQHandler+0x44>
 80006cc:	4b5d      	ldr	r3, [pc, #372]	@ (8000844 <DMA1_Stream3_IRQHandler+0x190>)
 80006ce:	681b      	ldr	r3, [r3, #0]
 80006d0:	69db      	ldr	r3, [r3, #28]
 80006d2:	2280      	movs	r2, #128	@ 0x80
 80006d4:	4013      	ands	r3, r2
 80006d6:	2b00      	cmp	r3, #0
 80006d8:	d00e      	beq.n	80006f8 <DMA1_Stream3_IRQHandler+0x44>
 80006da:	4b5a      	ldr	r3, [pc, #360]	@ (8000844 <DMA1_Stream3_IRQHandler+0x190>)
 80006dc:	681b      	ldr	r3, [r3, #0]
 80006de:	6bdb      	ldr	r3, [r3, #60]	@ 0x3c
 80006e0:	2b00      	cmp	r3, #0
 80006e2:	d009      	beq.n	80006f8 <DMA1_Stream3_IRQHandler+0x44>
 80006e4:	4b57      	ldr	r3, [pc, #348]	@ (8000844 <DMA1_Stream3_IRQHandler+0x190>)
 80006e6:	681b      	ldr	r3, [r3, #0]
 80006e8:	6bdb      	ldr	r3, [r3, #60]	@ 0x3c
 80006ea:	4798      	blx	r3
 80006ec:	4b53      	ldr	r3, [pc, #332]	@ (800083c <DMA1_Stream3_IRQHandler+0x188>)
 80006ee:	689b      	ldr	r3, [r3, #8]
 80006f0:	4a52      	ldr	r2, [pc, #328]	@ (800083c <DMA1_Stream3_IRQHandler+0x188>)
 80006f2:	f443 0380 	orr.w	r3, r3, #4194304	@ 0x400000
 80006f6:	6093      	str	r3, [r2, #8]
 80006f8:	4b51      	ldr	r3, [pc, #324]	@ (8000840 <DMA1_Stream3_IRQHandler+0x18c>)
 80006fa:	681b      	ldr	r3, [r3, #0]
 80006fc:	f003 7380 	and.w	r3, r3, #16777216	@ 0x1000000
 8000700:	2b00      	cmp	r3, #0
 8000702:	d015      	beq.n	8000730 <DMA1_Stream3_IRQHandler+0x7c>
 8000704:	4b4f      	ldr	r3, [pc, #316]	@ (8000844 <DMA1_Stream3_IRQHandler+0x190>)
 8000706:	681b      	ldr	r3, [r3, #0]
 8000708:	69db      	ldr	r3, [r3, #28]
 800070a:	2202      	movs	r2, #2
 800070c:	4013      	ands	r3, r2
 800070e:	2b00      	cmp	r3, #0
 8000710:	d00e      	beq.n	8000730 <DMA1_Stream3_IRQHandler+0x7c>
 8000712:	4b4c      	ldr	r3, [pc, #304]	@ (8000844 <DMA1_Stream3_IRQHandler+0x190>)
 8000714:	681b      	ldr	r3, [r3, #0]
 8000716:	6c1b      	ldr	r3, [r3, #64]	@ 0x40
 8000718:	2b00      	cmp	r3, #0
 800071a:	d009      	beq.n	8000730 <DMA1_Stream3_IRQHandler+0x7c>
 800071c:	4b49      	ldr	r3, [pc, #292]	@ (8000844 <DMA1_Stream3_IRQHandler+0x190>)
 800071e:	681b      	ldr	r3, [r3, #0]
 8000720:	6c1b      	ldr	r3, [r3, #64]	@ 0x40
 8000722:	4798      	blx	r3
 8000724:	4b45      	ldr	r3, [pc, #276]	@ (800083c <DMA1_Stream3_IRQHandler+0x188>)
 8000726:	689b      	ldr	r3, [r3, #8]
 8000728:	4a44      	ldr	r2, [pc, #272]	@ (800083c <DMA1_Stream3_IRQHandler+0x188>)
 800072a:	f043 7380 	orr.w	r3, r3, #16777216	@ 0x1000000
 800072e:	6093      	str	r3, [r2, #8]
 8000730:	4b43      	ldr	r3, [pc, #268]	@ (8000840 <DMA1_Stream3_IRQHandler+0x18c>)
 8000732:	681b      	ldr	r3, [r3, #0]
 8000734:	f003 7300 	and.w	r3, r3, #33554432	@ 0x2000000
 8000738:	2b00      	cmp	r3, #0
 800073a:	d015      	beq.n	8000768 <DMA1_Stream3_IRQHandler+0xb4>
 800073c:	4b41      	ldr	r3, [pc, #260]	@ (8000844 <DMA1_Stream3_IRQHandler+0x190>)
 800073e:	681b      	ldr	r3, [r3, #0]
 8000740:	69db      	ldr	r3, [r3, #28]
 8000742:	2204      	movs	r2, #4
 8000744:	4013      	ands	r3, r2
 8000746:	2b00      	cmp	r3, #0
 8000748:	d00e      	beq.n	8000768 <DMA1_Stream3_IRQHandler+0xb4>
 800074a:	4b3e      	ldr	r3, [pc, #248]	@ (8000844 <DMA1_Stream3_IRQHandler+0x190>)
 800074c:	681b      	ldr	r3, [r3, #0]
 800074e:	6c5b      	ldr	r3, [r3, #68]	@ 0x44
 8000750:	2b00      	cmp	r3, #0
 8000752:	d009      	beq.n	8000768 <DMA1_Stream3_IRQHandler+0xb4>
 8000754:	4b3b      	ldr	r3, [pc, #236]	@ (8000844 <DMA1_Stream3_IRQHandler+0x190>)
 8000756:	681b      	ldr	r3, [r3, #0]
 8000758:	6c5b      	ldr	r3, [r3, #68]	@ 0x44
 800075a:	4798      	blx	r3
 800075c:	4b37      	ldr	r3, [pc, #220]	@ (800083c <DMA1_Stream3_IRQHandler+0x188>)
 800075e:	689b      	ldr	r3, [r3, #8]
 8000760:	4a36      	ldr	r2, [pc, #216]	@ (800083c <DMA1_Stream3_IRQHandler+0x188>)
 8000762:	f043 7300 	orr.w	r3, r3, #33554432	@ 0x2000000
 8000766:	6093      	str	r3, [r2, #8]
 8000768:	4b35      	ldr	r3, [pc, #212]	@ (8000840 <DMA1_Stream3_IRQHandler+0x18c>)
 800076a:	681b      	ldr	r3, [r3, #0]
 800076c:	f003 6380 	and.w	r3, r3, #67108864	@ 0x4000000
 8000770:	2b00      	cmp	r3, #0
 8000772:	d02d      	beq.n	80007d0 <DMA1_Stream3_IRQHandler+0x11c>
 8000774:	4b33      	ldr	r3, [pc, #204]	@ (8000844 <DMA1_Stream3_IRQHandler+0x190>)
 8000776:	681b      	ldr	r3, [r3, #0]
 8000778:	69db      	ldr	r3, [r3, #28]
 800077a:	2208      	movs	r2, #8
 800077c:	4013      	ands	r3, r2
 800077e:	2b00      	cmp	r3, #0
 8000780:	d026      	beq.n	80007d0 <DMA1_Stream3_IRQHandler+0x11c>
 8000782:	4b30      	ldr	r3, [pc, #192]	@ (8000844 <DMA1_Stream3_IRQHandler+0x190>)
 8000784:	681b      	ldr	r3, [r3, #0]
 8000786:	6c9b      	ldr	r3, [r3, #72]	@ 0x48
 8000788:	2b00      	cmp	r3, #0
 800078a:	d021      	beq.n	80007d0 <DMA1_Stream3_IRQHandler+0x11c>
 800078c:	4b2d      	ldr	r3, [pc, #180]	@ (8000844 <DMA1_Stream3_IRQHandler+0x190>)
 800078e:	681b      	ldr	r3, [r3, #0]
 8000790:	6c9b      	ldr	r3, [r3, #72]	@ 0x48
 8000792:	4798      	blx	r3
 8000794:	4b29      	ldr	r3, [pc, #164]	@ (800083c <DMA1_Stream3_IRQHandler+0x188>)
 8000796:	689b      	ldr	r3, [r3, #8]
 8000798:	4a28      	ldr	r2, [pc, #160]	@ (800083c <DMA1_Stream3_IRQHandler+0x188>)
 800079a:	f043 6380 	orr.w	r3, r3, #67108864	@ 0x4000000
 800079e:	6093      	str	r3, [r2, #8]
 80007a0:	4b28      	ldr	r3, [pc, #160]	@ (8000844 <DMA1_Stream3_IRQHandler+0x190>)
 80007a2:	681b      	ldr	r3, [r3, #0]
 80007a4:	6b9b      	ldr	r3, [r3, #56]	@ 0x38
 80007a6:	f44f 2280 	mov.w	r2, #262144	@ 0x40000
 80007aa:	4293      	cmp	r3, r2
 80007ac:	d110      	bne.n	80007d0 <DMA1_Stream3_IRQHandler+0x11c>
 80007ae:	4b25      	ldr	r3, [pc, #148]	@ (8000844 <DMA1_Stream3_IRQHandler+0x190>)
 80007b0:	681b      	ldr	r3, [r3, #0]
 80007b2:	685b      	ldr	r3, [r3, #4]
 80007b4:	681b      	ldr	r3, [r3, #0]
 80007b6:	f403 2380 	and.w	r3, r3, #262144	@ 0x40000
 80007ba:	2b00      	cmp	r3, #0
 80007bc:	d004      	beq.n	80007c8 <DMA1_Stream3_IRQHandler+0x114>
 80007be:	4b21      	ldr	r3, [pc, #132]	@ (8000844 <DMA1_Stream3_IRQHandler+0x190>)
 80007c0:	681b      	ldr	r3, [r3, #0]
 80007c2:	6d1b      	ldr	r3, [r3, #80]	@ 0x50
 80007c4:	4798      	blx	r3
 80007c6:	e003      	b.n	80007d0 <DMA1_Stream3_IRQHandler+0x11c>
 80007c8:	4b1e      	ldr	r3, [pc, #120]	@ (8000844 <DMA1_Stream3_IRQHandler+0x190>)
 80007ca:	681b      	ldr	r3, [r3, #0]
 80007cc:	6d5b      	ldr	r3, [r3, #84]	@ 0x54
 80007ce:	4798      	blx	r3
 80007d0:	4b1b      	ldr	r3, [pc, #108]	@ (8000840 <DMA1_Stream3_IRQHandler+0x18c>)
 80007d2:	681b      	ldr	r3, [r3, #0]
 80007d4:	f003 6300 	and.w	r3, r3, #134217728	@ 0x8000000
 80007d8:	2b00      	cmp	r3, #0
 80007da:	d02d      	beq.n	8000838 <DMA1_Stream3_IRQHandler+0x184>
 80007dc:	4b19      	ldr	r3, [pc, #100]	@ (8000844 <DMA1_Stream3_IRQHandler+0x190>)
 80007de:	681b      	ldr	r3, [r3, #0]
 80007e0:	69db      	ldr	r3, [r3, #28]
 80007e2:	2210      	movs	r2, #16
 80007e4:	4013      	ands	r3, r2
 80007e6:	2b00      	cmp	r3, #0
 80007e8:	d026      	beq.n	8000838 <DMA1_Stream3_IRQHandler+0x184>
 80007ea:	4b16      	ldr	r3, [pc, #88]	@ (8000844 <DMA1_Stream3_IRQHandler+0x190>)
 80007ec:	681b      	ldr	r3, [r3, #0]
 80007ee:	6cdb      	ldr	r3, [r3, #76]	@ 0x4c
 80007f0:	2b00      	cmp	r3, #0
 80007f2:	d021      	beq.n	8000838 <DMA1_Stream3_IRQHandler+0x184>
 80007f4:	4b13      	ldr	r3, [pc, #76]	@ (8000844 <DMA1_Stream3_IRQHandler+0x190>)
 80007f6:	681b      	ldr	r3, [r3, #0]
 80007f8:	6cdb      	ldr	r3, [r3, #76]	@ 0x4c
 80007fa:	4798      	blx	r3
 80007fc:	4b0f      	ldr	r3, [pc, #60]	@ (800083c <DMA1_Stream3_IRQHandler+0x188>)
 80007fe:	689b      	ldr	r3, [r3, #8]
 8000800:	4a0e      	ldr	r2, [pc, #56]	@ (800083c <DMA1_Stream3_IRQHandler+0x188>)
 8000802:	f043 6300 	orr.w	r3, r3, #134217728	@ 0x8000000
 8000806:	6093      	str	r3, [r2, #8]
 8000808:	4b0e      	ldr	r3, [pc, #56]	@ (8000844 <DMA1_Stream3_IRQHandler+0x190>)
 800080a:	681b      	ldr	r3, [r3, #0]
 800080c:	6b9b      	ldr	r3, [r3, #56]	@ 0x38
 800080e:	f44f 2280 	mov.w	r2, #262144	@ 0x40000
 8000812:	4293      	cmp	r3, r2
 8000814:	d110      	bne.n	8000838 <DMA1_Stream3_IRQHandler+0x184>
 8000816:	4b0b      	ldr	r3, [pc, #44]	@ (8000844 <DMA1_Stream3_IRQHandler+0x190>)
 8000818:	681b      	ldr	r3, [r3, #0]
 800081a:	685b      	ldr	r3, [r3, #4]
 800081c:	681b      	ldr	r3, [r3, #0]
 800081e:	f403 2380 	and.w	r3, r3, #262144	@ 0x40000
 8000822:	2b00      	cmp	r3, #0
 8000824:	d004      	beq.n	8000830 <DMA1_Stream3_IRQHandler+0x17c>
 8000826:	4b07      	ldr	r3, [pc, #28]	@ (8000844 <DMA1_Stream3_IRQHandler+0x190>)
 8000828:	681b      	ldr	r3, [r3, #0]
 800082a:	6d1b      	ldr	r3, [r3, #80]	@ 0x50
 800082c:	4798      	blx	r3
 800082e:	e003      	b.n	8000838 <DMA1_Stream3_IRQHandler+0x184>
 8000830:	4b04      	ldr	r3, [pc, #16]	@ (8000844 <DMA1_Stream3_IRQHandler+0x190>)
 8000832:	681b      	ldr	r3, [r3, #0]
 8000834:	6d5b      	ldr	r3, [r3, #84]	@ 0x54
 8000836:	4798      	blx	r3
 8000838:	bf00      	nop
 800083a:	bd80      	pop	{r7, pc}
 800083c:	40026000 	.word	0x40026000
 8000840:	20000060 	.word	0x20000060
 8000844:	2000002c 	.word	0x2000002c

08000848 <DMA1_Stream4_IRQHandler>:
 8000848:	b580      	push	{r7, lr}
 800084a:	af00      	add	r7, sp, #0
 800084c:	4b4f      	ldr	r3, [pc, #316]	@ (800098c <DMA1_Stream4_IRQHandler+0x144>)
 800084e:	685b      	ldr	r3, [r3, #4]
 8000850:	4a4f      	ldr	r2, [pc, #316]	@ (8000990 <DMA1_Stream4_IRQHandler+0x148>)
 8000852:	6013      	str	r3, [r2, #0]
 8000854:	4b4e      	ldr	r3, [pc, #312]	@ (8000990 <DMA1_Stream4_IRQHandler+0x148>)
 8000856:	681b      	ldr	r3, [r3, #0]
 8000858:	f003 0301 	and.w	r3, r3, #1
 800085c:	2b00      	cmp	r3, #0
 800085e:	d00e      	beq.n	800087e <DMA1_Stream4_IRQHandler+0x36>
 8000860:	4b4c      	ldr	r3, [pc, #304]	@ (8000994 <DMA1_Stream4_IRQHandler+0x14c>)
 8000862:	681b      	ldr	r3, [r3, #0]
 8000864:	6bdb      	ldr	r3, [r3, #60]	@ 0x3c
 8000866:	2b00      	cmp	r3, #0
 8000868:	d009      	beq.n	800087e <DMA1_Stream4_IRQHandler+0x36>
 800086a:	4b4a      	ldr	r3, [pc, #296]	@ (8000994 <DMA1_Stream4_IRQHandler+0x14c>)
 800086c:	681b      	ldr	r3, [r3, #0]
 800086e:	6bdb      	ldr	r3, [r3, #60]	@ 0x3c
 8000870:	4798      	blx	r3
 8000872:	4b46      	ldr	r3, [pc, #280]	@ (800098c <DMA1_Stream4_IRQHandler+0x144>)
 8000874:	689b      	ldr	r3, [r3, #8]
 8000876:	4a45      	ldr	r2, [pc, #276]	@ (800098c <DMA1_Stream4_IRQHandler+0x144>)
 8000878:	f043 0340 	orr.w	r3, r3, #64	@ 0x40
 800087c:	6093      	str	r3, [r2, #8]
 800087e:	4b44      	ldr	r3, [pc, #272]	@ (8000990 <DMA1_Stream4_IRQHandler+0x148>)
 8000880:	681b      	ldr	r3, [r3, #0]
 8000882:	f003 0304 	and.w	r3, r3, #4
 8000886:	2b00      	cmp	r3, #0
 8000888:	d00e      	beq.n	80008a8 <DMA1_Stream4_IRQHandler+0x60>
 800088a:	4b42      	ldr	r3, [pc, #264]	@ (8000994 <DMA1_Stream4_IRQHandler+0x14c>)
 800088c:	681b      	ldr	r3, [r3, #0]
 800088e:	6c1b      	ldr	r3, [r3, #64]	@ 0x40
 8000890:	2b00      	cmp	r3, #0
 8000892:	d009      	beq.n	80008a8 <DMA1_Stream4_IRQHandler+0x60>
 8000894:	4b3f      	ldr	r3, [pc, #252]	@ (8000994 <DMA1_Stream4_IRQHandler+0x14c>)
 8000896:	681b      	ldr	r3, [r3, #0]
 8000898:	6c1b      	ldr	r3, [r3, #64]	@ 0x40
 800089a:	4798      	blx	r3
 800089c:	4b3b      	ldr	r3, [pc, #236]	@ (800098c <DMA1_Stream4_IRQHandler+0x144>)
 800089e:	68db      	ldr	r3, [r3, #12]
 80008a0:	4a3a      	ldr	r2, [pc, #232]	@ (800098c <DMA1_Stream4_IRQHandler+0x144>)
 80008a2:	f043 0304 	orr.w	r3, r3, #4
 80008a6:	60d3      	str	r3, [r2, #12]
 80008a8:	4b39      	ldr	r3, [pc, #228]	@ (8000990 <DMA1_Stream4_IRQHandler+0x148>)
 80008aa:	681b      	ldr	r3, [r3, #0]
 80008ac:	f003 0308 	and.w	r3, r3, #8
 80008b0:	2b00      	cmp	r3, #0
 80008b2:	d00e      	beq.n	80008d2 <DMA1_Stream4_IRQHandler+0x8a>
 80008b4:	4b37      	ldr	r3, [pc, #220]	@ (8000994 <DMA1_Stream4_IRQHandler+0x14c>)
 80008b6:	681b      	ldr	r3, [r3, #0]
 80008b8:	6c5b      	ldr	r3, [r3, #68]	@ 0x44
 80008ba:	2b00      	cmp	r3, #0
 80008bc:	d009      	beq.n	80008d2 <DMA1_Stream4_IRQHandler+0x8a>
 80008be:	4b35      	ldr	r3, [pc, #212]	@ (8000994 <DMA1_Stream4_IRQHandler+0x14c>)
 80008c0:	681b      	ldr	r3, [r3, #0]
 80008c2:	6c5b      	ldr	r3, [r3, #68]	@ 0x44
 80008c4:	4798      	blx	r3
 80008c6:	4b31      	ldr	r3, [pc, #196]	@ (800098c <DMA1_Stream4_IRQHandler+0x144>)
 80008c8:	68db      	ldr	r3, [r3, #12]
 80008ca:	4a30      	ldr	r2, [pc, #192]	@ (800098c <DMA1_Stream4_IRQHandler+0x144>)
 80008cc:	f043 0308 	orr.w	r3, r3, #8
 80008d0:	60d3      	str	r3, [r2, #12]
 80008d2:	4b2f      	ldr	r3, [pc, #188]	@ (8000990 <DMA1_Stream4_IRQHandler+0x148>)
 80008d4:	681b      	ldr	r3, [r3, #0]
 80008d6:	f003 0310 	and.w	r3, r3, #16
 80008da:	2b00      	cmp	r3, #0
 80008dc:	d026      	beq.n	800092c <DMA1_Stream4_IRQHandler+0xe4>
 80008de:	4b2d      	ldr	r3, [pc, #180]	@ (8000994 <DMA1_Stream4_IRQHandler+0x14c>)
 80008e0:	681b      	ldr	r3, [r3, #0]
 80008e2:	6c9b      	ldr	r3, [r3, #72]	@ 0x48
 80008e4:	2b00      	cmp	r3, #0
 80008e6:	d021      	beq.n	800092c <DMA1_Stream4_IRQHandler+0xe4>
 80008e8:	4b2a      	ldr	r3, [pc, #168]	@ (8000994 <DMA1_Stream4_IRQHandler+0x14c>)
 80008ea:	681b      	ldr	r3, [r3, #0]
 80008ec:	6c9b      	ldr	r3, [r3, #72]	@ 0x48
 80008ee:	4798      	blx	r3
 80008f0:	4b26      	ldr	r3, [pc, #152]	@ (800098c <DMA1_Stream4_IRQHandler+0x144>)
 80008f2:	68db      	ldr	r3, [r3, #12]
 80008f4:	4a25      	ldr	r2, [pc, #148]	@ (800098c <DMA1_Stream4_IRQHandler+0x144>)
 80008f6:	f043 0310 	orr.w	r3, r3, #16
 80008fa:	60d3      	str	r3, [r2, #12]
 80008fc:	4b25      	ldr	r3, [pc, #148]	@ (8000994 <DMA1_Stream4_IRQHandler+0x14c>)
 80008fe:	681b      	ldr	r3, [r3, #0]
 8000900:	6b9b      	ldr	r3, [r3, #56]	@ 0x38
 8000902:	f44f 2280 	mov.w	r2, #262144	@ 0x40000
 8000906:	4293      	cmp	r3, r2
 8000908:	d110      	bne.n	800092c <DMA1_Stream4_IRQHandler+0xe4>
 800090a:	4b22      	ldr	r3, [pc, #136]	@ (8000994 <DMA1_Stream4_IRQHandler+0x14c>)
 800090c:	681b      	ldr	r3, [r3, #0]
 800090e:	685b      	ldr	r3, [r3, #4]
 8000910:	681b      	ldr	r3, [r3, #0]
 8000912:	f403 2380 	and.w	r3, r3, #262144	@ 0x40000
 8000916:	2b00      	cmp	r3, #0
 8000918:	d004      	beq.n	8000924 <DMA1_Stream4_IRQHandler+0xdc>
 800091a:	4b1e      	ldr	r3, [pc, #120]	@ (8000994 <DMA1_Stream4_IRQHandler+0x14c>)
 800091c:	681b      	ldr	r3, [r3, #0]
 800091e:	6d1b      	ldr	r3, [r3, #80]	@ 0x50
 8000920:	4798      	blx	r3
 8000922:	e003      	b.n	800092c <DMA1_Stream4_IRQHandler+0xe4>
 8000924:	4b1b      	ldr	r3, [pc, #108]	@ (8000994 <DMA1_Stream4_IRQHandler+0x14c>)
 8000926:	681b      	ldr	r3, [r3, #0]
 8000928:	6d5b      	ldr	r3, [r3, #84]	@ 0x54
 800092a:	4798      	blx	r3
 800092c:	4b18      	ldr	r3, [pc, #96]	@ (8000990 <DMA1_Stream4_IRQHandler+0x148>)
 800092e:	681b      	ldr	r3, [r3, #0]
 8000930:	f003 0320 	and.w	r3, r3, #32
 8000934:	2b00      	cmp	r3, #0
 8000936:	d026      	beq.n	8000986 <DMA1_Stream4_IRQHandler+0x13e>
 8000938:	4b16      	ldr	r3, [pc, #88]	@ (8000994 <DMA1_Stream4_IRQHandler+0x14c>)
 800093a:	681b      	ldr	r3, [r3, #0]
 800093c:	6cdb      	ldr	r3, [r3, #76]	@ 0x4c
 800093e:	2b00      	cmp	r3, #0
 8000940:	d021      	beq.n	8000986 <DMA1_Stream4_IRQHandler+0x13e>
 8000942:	4b14      	ldr	r3, [pc, #80]	@ (8000994 <DMA1_Stream4_IRQHandler+0x14c>)
 8000944:	681b      	ldr	r3, [r3, #0]
 8000946:	6cdb      	ldr	r3, [r3, #76]	@ 0x4c
 8000948:	4798      	blx	r3
 800094a:	4b10      	ldr	r3, [pc, #64]	@ (800098c <DMA1_Stream4_IRQHandler+0x144>)
 800094c:	68db      	ldr	r3, [r3, #12]
 800094e:	4a0f      	ldr	r2, [pc, #60]	@ (800098c <DMA1_Stream4_IRQHandler+0x144>)
 8000950:	f043 0320 	orr.w	r3, r3, #32
 8000954:	60d3      	str	r3, [r2, #12]
 8000956:	4b0f      	ldr	r3, [pc, #60]	@ (8000994 <DMA1_Stream4_IRQHandler+0x14c>)
 8000958:	681b      	ldr	r3, [r3, #0]
 800095a:	6b9b      	ldr	r3, [r3, #56]	@ 0x38
 800095c:	f44f 2280 	mov.w	r2, #262144	@ 0x40000
 8000960:	4293      	cmp	r3, r2
 8000962:	d110      	bne.n	8000986 <DMA1_Stream4_IRQHandler+0x13e>
 8000964:	4b0b      	ldr	r3, [pc, #44]	@ (8000994 <DMA1_Stream4_IRQHandler+0x14c>)
 8000966:	681b      	ldr	r3, [r3, #0]
 8000968:	685b      	ldr	r3, [r3, #4]
 800096a:	681b      	ldr	r3, [r3, #0]
 800096c:	f403 2380 	and.w	r3, r3, #262144	@ 0x40000
 8000970:	2b00      	cmp	r3, #0
 8000972:	d004      	beq.n	800097e <DMA1_Stream4_IRQHandler+0x136>
 8000974:	4b07      	ldr	r3, [pc, #28]	@ (8000994 <DMA1_Stream4_IRQHandler+0x14c>)
 8000976:	681b      	ldr	r3, [r3, #0]
 8000978:	6d1b      	ldr	r3, [r3, #80]	@ 0x50
 800097a:	4798      	blx	r3
 800097c:	e003      	b.n	8000986 <DMA1_Stream4_IRQHandler+0x13e>
 800097e:	4b05      	ldr	r3, [pc, #20]	@ (8000994 <DMA1_Stream4_IRQHandler+0x14c>)
 8000980:	681b      	ldr	r3, [r3, #0]
 8000982:	6d5b      	ldr	r3, [r3, #84]	@ 0x54
 8000984:	4798      	blx	r3
 8000986:	bf00      	nop
 8000988:	bd80      	pop	{r7, pc}
 800098a:	bf00      	nop
 800098c:	40026000 	.word	0x40026000
 8000990:	20000064 	.word	0x20000064
 8000994:	20000030 	.word	0x20000030

08000998 <DMA1_Stream5_IRQHandler>:
 8000998:	b580      	push	{r7, lr}
 800099a:	af00      	add	r7, sp, #0
 800099c:	4b4f      	ldr	r3, [pc, #316]	@ (8000adc <DMA1_Stream5_IRQHandler+0x144>)
 800099e:	685b      	ldr	r3, [r3, #4]
 80009a0:	4a4f      	ldr	r2, [pc, #316]	@ (8000ae0 <DMA1_Stream5_IRQHandler+0x148>)
 80009a2:	6013      	str	r3, [r2, #0]
 80009a4:	4b4e      	ldr	r3, [pc, #312]	@ (8000ae0 <DMA1_Stream5_IRQHandler+0x148>)
 80009a6:	681b      	ldr	r3, [r3, #0]
 80009a8:	f003 0340 	and.w	r3, r3, #64	@ 0x40
 80009ac:	2b00      	cmp	r3, #0
 80009ae:	d00e      	beq.n	80009ce <DMA1_Stream5_IRQHandler+0x36>
 80009b0:	4b4c      	ldr	r3, [pc, #304]	@ (8000ae4 <DMA1_Stream5_IRQHandler+0x14c>)
 80009b2:	681b      	ldr	r3, [r3, #0]
 80009b4:	6bdb      	ldr	r3, [r3, #60]	@ 0x3c
 80009b6:	2b00      	cmp	r3, #0
 80009b8:	d009      	beq.n	80009ce <DMA1_Stream5_IRQHandler+0x36>
 80009ba:	4b4a      	ldr	r3, [pc, #296]	@ (8000ae4 <DMA1_Stream5_IRQHandler+0x14c>)
 80009bc:	681b      	ldr	r3, [r3, #0]
 80009be:	6bdb      	ldr	r3, [r3, #60]	@ 0x3c
 80009c0:	4798      	blx	r3
 80009c2:	4b46      	ldr	r3, [pc, #280]	@ (8000adc <DMA1_Stream5_IRQHandler+0x144>)
 80009c4:	68db      	ldr	r3, [r3, #12]
 80009c6:	4a45      	ldr	r2, [pc, #276]	@ (8000adc <DMA1_Stream5_IRQHandler+0x144>)
 80009c8:	f043 0340 	orr.w	r3, r3, #64	@ 0x40
 80009cc:	60d3      	str	r3, [r2, #12]
 80009ce:	4b44      	ldr	r3, [pc, #272]	@ (8000ae0 <DMA1_Stream5_IRQHandler+0x148>)
 80009d0:	681b      	ldr	r3, [r3, #0]
 80009d2:	f403 7380 	and.w	r3, r3, #256	@ 0x100
 80009d6:	2b00      	cmp	r3, #0
 80009d8:	d00e      	beq.n	80009f8 <DMA1_Stream5_IRQHandler+0x60>
 80009da:	4b42      	ldr	r3, [pc, #264]	@ (8000ae4 <DMA1_Stream5_IRQHandler+0x14c>)
 80009dc:	681b      	ldr	r3, [r3, #0]
 80009de:	6c1b      	ldr	r3, [r3, #64]	@ 0x40
 80009e0:	2b00      	cmp	r3, #0
 80009e2:	d009      	beq.n	80009f8 <DMA1_Stream5_IRQHandler+0x60>
 80009e4:	4b3f      	ldr	r3, [pc, #252]	@ (8000ae4 <DMA1_Stream5_IRQHandler+0x14c>)
 80009e6:	681b      	ldr	r3, [r3, #0]
 80009e8:	6c1b      	ldr	r3, [r3, #64]	@ 0x40
 80009ea:	4798      	blx	r3
 80009ec:	4b3b      	ldr	r3, [pc, #236]	@ (8000adc <DMA1_Stream5_IRQHandler+0x144>)
 80009ee:	68db      	ldr	r3, [r3, #12]
 80009f0:	4a3a      	ldr	r2, [pc, #232]	@ (8000adc <DMA1_Stream5_IRQHandler+0x144>)
 80009f2:	f443 7380 	orr.w	r3, r3, #256	@ 0x100
 80009f6:	60d3      	str	r3, [r2, #12]
 80009f8:	4b39      	ldr	r3, [pc, #228]	@ (8000ae0 <DMA1_Stream5_IRQHandler+0x148>)
 80009fa:	681b      	ldr	r3, [r3, #0]
 80009fc:	f403 7300 	and.w	r3, r3, #512	@ 0x200
 8000a00:	2b00      	cmp	r3, #0
 8000a02:	d00e      	beq.n	8000a22 <DMA1_Stream5_IRQHandler+0x8a>
 8000a04:	4b37      	ldr	r3, [pc, #220]	@ (8000ae4 <DMA1_Stream5_IRQHandler+0x14c>)
 8000a06:	681b      	ldr	r3, [r3, #0]
 8000a08:	6c5b      	ldr	r3, [r3, #68]	@ 0x44
 8000a0a:	2b00      	cmp	r3, #0
 8000a0c:	d009      	beq.n	8000a22 <DMA1_Stream5_IRQHandler+0x8a>
 8000a0e:	4b35      	ldr	r3, [pc, #212]	@ (8000ae4 <DMA1_Stream5_IRQHandler+0x14c>)
 8000a10:	681b      	ldr	r3, [r3, #0]
 8000a12:	6c5b      	ldr	r3, [r3, #68]	@ 0x44
 8000a14:	4798      	blx	r3
 8000a16:	4b31      	ldr	r3, [pc, #196]	@ (8000adc <DMA1_Stream5_IRQHandler+0x144>)
 8000a18:	68db      	ldr	r3, [r3, #12]
 8000a1a:	4a30      	ldr	r2, [pc, #192]	@ (8000adc <DMA1_Stream5_IRQHandler+0x144>)
 8000a1c:	f443 7300 	orr.w	r3, r3, #512	@ 0x200
 8000a20:	60d3      	str	r3, [r2, #12]
 8000a22:	4b2f      	ldr	r3, [pc, #188]	@ (8000ae0 <DMA1_Stream5_IRQHandler+0x148>)
 8000a24:	681b      	ldr	r3, [r3, #0]
 8000a26:	f403 6380 	and.w	r3, r3, #1024	@ 0x400
 8000a2a:	2b00      	cmp	r3, #0
 8000a2c:	d026      	beq.n	8000a7c <DMA1_Stream5_IRQHandler+0xe4>
 8000a2e:	4b2d      	ldr	r3, [pc, #180]	@ (8000ae4 <DMA1_Stream5_IRQHandler+0x14c>)
 8000a30:	681b      	ldr	r3, [r3, #0]
 8000a32:	6c9b      	ldr	r3, [r3, #72]	@ 0x48
 8000a34:	2b00      	cmp	r3, #0
 8000a36:	d021      	beq.n	8000a7c <DMA1_Stream5_IRQHandler+0xe4>
 8000a38:	4b2a      	ldr	r3, [pc, #168]	@ (8000ae4 <DMA1_Stream5_IRQHandler+0x14c>)
 8000a3a:	681b      	ldr	r3, [r3, #0]
 8000a3c:	6c9b      	ldr	r3, [r3, #72]	@ 0x48
 8000a3e:	4798      	blx	r3
 8000a40:	4b26      	ldr	r3, [pc, #152]	@ (8000adc <DMA1_Stream5_IRQHandler+0x144>)
 8000a42:	68db      	ldr	r3, [r3, #12]
 8000a44:	4a25      	ldr	r2, [pc, #148]	@ (8000adc <DMA1_Stream5_IRQHandler+0x144>)
 8000a46:	f443 6380 	orr.w	r3, r3, #1024	@ 0x400
 8000a4a:	60d3      	str	r3, [r2, #12]
 8000a4c:	4b25      	ldr	r3, [pc, #148]	@ (8000ae4 <DMA1_Stream5_IRQHandler+0x14c>)
 8000a4e:	681b      	ldr	r3, [r3, #0]
 8000a50:	6b9b      	ldr	r3, [r3, #56]	@ 0x38
 8000a52:	f44f 2280 	mov.w	r2, #262144	@ 0x40000
 8000a56:	4293      	cmp	r3, r2
 8000a58:	d110      	bne.n	8000a7c <DMA1_Stream5_IRQHandler+0xe4>
 8000a5a:	4b22      	ldr	r3, [pc, #136]	@ (8000ae4 <DMA1_Stream5_IRQHandler+0x14c>)
 8000a5c:	681b      	ldr	r3, [r3, #0]
 8000a5e:	685b      	ldr	r3, [r3, #4]
 8000a60:	681b      	ldr	r3, [r3, #0]
 8000a62:	f403 2380 	and.w	r3, r3, #262144	@ 0x40000
 8000a66:	2b00      	cmp	r3, #0
 8000a68:	d004      	beq.n	8000a74 <DMA1_Stream5_IRQHandler+0xdc>
 8000a6a:	4b1e      	ldr	r3, [pc, #120]	@ (8000ae4 <DMA1_Stream5_IRQHandler+0x14c>)
 8000a6c:	681b      	ldr	r3, [r3, #0]
 8000a6e:	6d1b      	ldr	r3, [r3, #80]	@ 0x50
 8000a70:	4798      	blx	r3
 8000a72:	e003      	b.n	8000a7c <DMA1_Stream5_IRQHandler+0xe4>
 8000a74:	4b1b      	ldr	r3, [pc, #108]	@ (8000ae4 <DMA1_Stream5_IRQHandler+0x14c>)
 8000a76:	681b      	ldr	r3, [r3, #0]
 8000a78:	6d5b      	ldr	r3, [r3, #84]	@ 0x54
 8000a7a:	4798      	blx	r3
 8000a7c:	4b18      	ldr	r3, [pc, #96]	@ (8000ae0 <DMA1_Stream5_IRQHandler+0x148>)
 8000a7e:	681b      	ldr	r3, [r3, #0]
 8000a80:	f403 6300 	and.w	r3, r3, #2048	@ 0x800
 8000a84:	2b00      	cmp	r3, #0
 8000a86:	d026      	beq.n	8000ad6 <DMA1_Stream5_IRQHandler+0x13e>
 8000a88:	4b16      	ldr	r3, [pc, #88]	@ (8000ae4 <DMA1_Stream5_IRQHandler+0x14c>)
 8000a8a:	681b      	ldr	r3, [r3, #0]
 8000a8c:	6cdb      	ldr	r3, [r3, #76]	@ 0x4c
 8000a8e:	2b00      	cmp	r3, #0
 8000a90:	d021      	beq.n	8000ad6 <DMA1_Stream5_IRQHandler+0x13e>
 8000a92:	4b14      	ldr	r3, [pc, #80]	@ (8000ae4 <DMA1_Stream5_IRQHandler+0x14c>)
 8000a94:	681b      	ldr	r3, [r3, #0]
 8000a96:	6cdb      	ldr	r3, [r3, #76]	@ 0x4c
 8000a98:	4798      	blx	r3
 8000a9a:	4b10      	ldr	r3, [pc, #64]	@ (8000adc <DMA1_Stream5_IRQHandler+0x144>)
 8000a9c:	68db      	ldr	r3, [r3, #12]
 8000a9e:	4a0f      	ldr	r2, [pc, #60]	@ (8000adc <DMA1_Stream5_IRQHandler+0x144>)
 8000aa0:	f443 6300 	orr.w	r3, r3, #2048	@ 0x800
 8000aa4:	60d3      	str	r3, [r2, #12]
 8000aa6:	4b0f      	ldr	r3, [pc, #60]	@ (8000ae4 <DMA1_Stream5_IRQHandler+0x14c>)
 8000aa8:	681b      	ldr	r3, [r3, #0]
 8000aaa:	6b9b      	ldr	r3, [r3, #56]	@ 0x38
 8000aac:	f44f 2280 	mov.w	r2, #262144	@ 0x40000
 8000ab0:	4293      	cmp	r3, r2
 8000ab2:	d110      	bne.n	8000ad6 <DMA1_Stream5_IRQHandler+0x13e>
 8000ab4:	4b0b      	ldr	r3, [pc, #44]	@ (8000ae4 <DMA1_Stream5_IRQHandler+0x14c>)
 8000ab6:	681b      	ldr	r3, [r3, #0]
 8000ab8:	685b      	ldr	r3, [r3, #4]
 8000aba:	681b      	ldr	r3, [r3, #0]
 8000abc:	f403 2380 	and.w	r3, r3, #262144	@ 0x40000
 8000ac0:	2b00      	cmp	r3, #0
 8000ac2:	d004      	beq.n	8000ace <DMA1_Stream5_IRQHandler+0x136>
 8000ac4:	4b07      	ldr	r3, [pc, #28]	@ (8000ae4 <DMA1_Stream5_IRQHandler+0x14c>)
 8000ac6:	681b      	ldr	r3, [r3, #0]
 8000ac8:	6d1b      	ldr	r3, [r3, #80]	@ 0x50
 8000aca:	4798      	blx	r3
 8000acc:	e003      	b.n	8000ad6 <DMA1_Stream5_IRQHandler+0x13e>
 8000ace:	4b05      	ldr	r3, [pc, #20]	@ (8000ae4 <DMA1_Stream5_IRQHandler+0x14c>)
 8000ad0:	681b      	ldr	r3, [r3, #0]
 8000ad2:	6d5b      	ldr	r3, [r3, #84]	@ 0x54
 8000ad4:	4798      	blx	r3
 8000ad6:	bf00      	nop
 8000ad8:	bd80      	pop	{r7, pc}
 8000ada:	bf00      	nop
 8000adc:	40026000 	.word	0x40026000
 8000ae0:	20000064 	.word	0x20000064
 8000ae4:	20000034 	.word	0x20000034

08000ae8 <DMA1_Stream6_IRQHandler>:
 8000ae8:	b580      	push	{r7, lr}
 8000aea:	af00      	add	r7, sp, #0
 8000aec:	4b4f      	ldr	r3, [pc, #316]	@ (8000c2c <DMA1_Stream6_IRQHandler+0x144>)
 8000aee:	685b      	ldr	r3, [r3, #4]
 8000af0:	4a4f      	ldr	r2, [pc, #316]	@ (8000c30 <DMA1_Stream6_IRQHandler+0x148>)
 8000af2:	6013      	str	r3, [r2, #0]
 8000af4:	4b4e      	ldr	r3, [pc, #312]	@ (8000c30 <DMA1_Stream6_IRQHandler+0x148>)
 8000af6:	681b      	ldr	r3, [r3, #0]
 8000af8:	f403 3380 	and.w	r3, r3, #65536	@ 0x10000
 8000afc:	2b00      	cmp	r3, #0
 8000afe:	d00e      	beq.n	8000b1e <DMA1_Stream6_IRQHandler+0x36>
 8000b00:	4b4c      	ldr	r3, [pc, #304]	@ (8000c34 <DMA1_Stream6_IRQHandler+0x14c>)
 8000b02:	681b      	ldr	r3, [r3, #0]
 8000b04:	6bdb      	ldr	r3, [r3, #60]	@ 0x3c
 8000b06:	2b00      	cmp	r3, #0
 8000b08:	d009      	beq.n	8000b1e <DMA1_Stream6_IRQHandler+0x36>
 8000b0a:	4b4a      	ldr	r3, [pc, #296]	@ (8000c34 <DMA1_Stream6_IRQHandler+0x14c>)
 8000b0c:	681b      	ldr	r3, [r3, #0]
 8000b0e:	6bdb      	ldr	r3, [r3, #60]	@ 0x3c
 8000b10:	4798      	blx	r3
 8000b12:	4b46      	ldr	r3, [pc, #280]	@ (8000c2c <DMA1_Stream6_IRQHandler+0x144>)
 8000b14:	68db      	ldr	r3, [r3, #12]
 8000b16:	4a45      	ldr	r2, [pc, #276]	@ (8000c2c <DMA1_Stream6_IRQHandler+0x144>)
 8000b18:	f443 3380 	orr.w	r3, r3, #65536	@ 0x10000
 8000b1c:	60d3      	str	r3, [r2, #12]
 8000b1e:	4b44      	ldr	r3, [pc, #272]	@ (8000c30 <DMA1_Stream6_IRQHandler+0x148>)
 8000b20:	681b      	ldr	r3, [r3, #0]
 8000b22:	f403 2380 	and.w	r3, r3, #262144	@ 0x40000
 8000b26:	2b00      	cmp	r3, #0
 8000b28:	d00e      	beq.n	8000b48 <DMA1_Stream6_IRQHandler+0x60>
 8000b2a:	4b42      	ldr	r3, [pc, #264]	@ (8000c34 <DMA1_Stream6_IRQHandler+0x14c>)
 8000b2c:	681b      	ldr	r3, [r3, #0]
 8000b2e:	6c1b      	ldr	r3, [r3, #64]	@ 0x40
 8000b30:	2b00      	cmp	r3, #0
 8000b32:	d009      	beq.n	8000b48 <DMA1_Stream6_IRQHandler+0x60>
 8000b34:	4b3f      	ldr	r3, [pc, #252]	@ (8000c34 <DMA1_Stream6_IRQHandler+0x14c>)
 8000b36:	681b      	ldr	r3, [r3, #0]
 8000b38:	6c1b      	ldr	r3, [r3, #64]	@ 0x40
 8000b3a:	4798      	blx	r3
 8000b3c:	4b3b      	ldr	r3, [pc, #236]	@ (8000c2c <DMA1_Stream6_IRQHandler+0x144>)
 8000b3e:	68db      	ldr	r3, [r3, #12]
 8000b40:	4a3a      	ldr	r2, [pc, #232]	@ (8000c2c <DMA1_Stream6_IRQHandler+0x144>)
 8000b42:	f443 2380 	orr.w	r3, r3, #262144	@ 0x40000
 8000b46:	60d3      	str	r3, [r2, #12]
 8000b48:	4b39      	ldr	r3, [pc, #228]	@ (8000c30 <DMA1_Stream6_IRQHandler+0x148>)
 8000b4a:	681b      	ldr	r3, [r3, #0]
 8000b4c:	f403 2300 	and.w	r3, r3, #524288	@ 0x80000
 8000b50:	2b00      	cmp	r3, #0
 8000b52:	d00e      	beq.n	8000b72 <DMA1_Stream6_IRQHandler+0x8a>
 8000b54:	4b37      	ldr	r3, [pc, #220]	@ (8000c34 <DMA1_Stream6_IRQHandler+0x14c>)
 8000b56:	681b      	ldr	r3, [r3, #0]
 8000b58:	6c5b      	ldr	r3, [r3, #68]	@ 0x44
 8000b5a:	2b00      	cmp	r3, #0
 8000b5c:	d009      	beq.n	8000b72 <DMA1_Stream6_IRQHandler+0x8a>
 8000b5e:	4b35      	ldr	r3, [pc, #212]	@ (8000c34 <DMA1_Stream6_IRQHandler+0x14c>)
 8000b60:	681b      	ldr	r3, [r3, #0]
 8000b62:	6c5b      	ldr	r3, [r3, #68]	@ 0x44
 8000b64:	4798      	blx	r3
 8000b66:	4b31      	ldr	r3, [pc, #196]	@ (8000c2c <DMA1_Stream6_IRQHandler+0x144>)
 8000b68:	68db      	ldr	r3, [r3, #12]
 8000b6a:	4a30      	ldr	r2, [pc, #192]	@ (8000c2c <DMA1_Stream6_IRQHandler+0x144>)
 8000b6c:	f443 2300 	orr.w	r3, r3, #524288	@ 0x80000
 8000b70:	60d3      	str	r3, [r2, #12]
 8000b72:	4b2f      	ldr	r3, [pc, #188]	@ (8000c30 <DMA1_Stream6_IRQHandler+0x148>)
 8000b74:	681b      	ldr	r3, [r3, #0]
 8000b76:	f403 1380 	and.w	r3, r3, #1048576	@ 0x100000
 8000b7a:	2b00      	cmp	r3, #0
 8000b7c:	d026      	beq.n	8000bcc <DMA1_Stream6_IRQHandler+0xe4>
 8000b7e:	4b2d      	ldr	r3, [pc, #180]	@ (8000c34 <DMA1_Stream6_IRQHandler+0x14c>)
 8000b80:	681b      	ldr	r3, [r3, #0]
 8000b82:	6c9b      	ldr	r3, [r3, #72]	@ 0x48
 8000b84:	2b00      	cmp	r3, #0
 8000b86:	d021      	beq.n	8000bcc <DMA1_Stream6_IRQHandler+0xe4>
 8000b88:	4b2a      	ldr	r3, [pc, #168]	@ (8000c34 <DMA1_Stream6_IRQHandler+0x14c>)
 8000b8a:	681b      	ldr	r3, [r3, #0]
 8000b8c:	6c9b      	ldr	r3, [r3, #72]	@ 0x48
 8000b8e:	4798      	blx	r3
 8000b90:	4b26      	ldr	r3, [pc, #152]	@ (8000c2c <DMA1_Stream6_IRQHandler+0x144>)
 8000b92:	68db      	ldr	r3, [r3, #12]
 8000b94:	4a25      	ldr	r2, [pc, #148]	@ (8000c2c <DMA1_Stream6_IRQHandler+0x144>)
 8000b96:	f443 1380 	orr.w	r3, r3, #1048576	@ 0x100000
 8000b9a:	60d3      	str	r3, [r2, #12]
 8000b9c:	4b25      	ldr	r3, [pc, #148]	@ (8000c34 <DMA1_Stream6_IRQHandler+0x14c>)
 8000b9e:	681b      	ldr	r3, [r3, #0]
 8000ba0:	6b9b      	ldr	r3, [r3, #56]	@ 0x38
 8000ba2:	f44f 2280 	mov.w	r2, #262144	@ 0x40000
 8000ba6:	4293      	cmp	r3, r2
 8000ba8:	d110      	bne.n	8000bcc <DMA1_Stream6_IRQHandler+0xe4>
 8000baa:	4b22      	ldr	r3, [pc, #136]	@ (8000c34 <DMA1_Stream6_IRQHandler+0x14c>)
 8000bac:	681b      	ldr	r3, [r3, #0]
 8000bae:	685b      	ldr	r3, [r3, #4]
 8000bb0:	681b      	ldr	r3, [r3, #0]
 8000bb2:	f403 2380 	and.w	r3, r3, #262144	@ 0x40000
 8000bb6:	2b00      	cmp	r3, #0
 8000bb8:	d004      	beq.n	8000bc4 <DMA1_Stream6_IRQHandler+0xdc>
 8000bba:	4b1e      	ldr	r3, [pc, #120]	@ (8000c34 <DMA1_Stream6_IRQHandler+0x14c>)
 8000bbc:	681b      	ldr	r3, [r3, #0]
 8000bbe:	6d1b      	ldr	r3, [r3, #80]	@ 0x50
 8000bc0:	4798      	blx	r3
 8000bc2:	e003      	b.n	8000bcc <DMA1_Stream6_IRQHandler+0xe4>
 8000bc4:	4b1b      	ldr	r3, [pc, #108]	@ (8000c34 <DMA1_Stream6_IRQHandler+0x14c>)
 8000bc6:	681b      	ldr	r3, [r3, #0]
 8000bc8:	6d5b      	ldr	r3, [r3, #84]	@ 0x54
 8000bca:	4798      	blx	r3
 8000bcc:	4b18      	ldr	r3, [pc, #96]	@ (8000c30 <DMA1_Stream6_IRQHandler+0x148>)
 8000bce:	681b      	ldr	r3, [r3, #0]
 8000bd0:	f403 1300 	and.w	r3, r3, #2097152	@ 0x200000
 8000bd4:	2b00      	cmp	r3, #0
 8000bd6:	d026      	beq.n	8000c26 <DMA1_Stream6_IRQHandler+0x13e>
 8000bd8:	4b16      	ldr	r3, [pc, #88]	@ (8000c34 <DMA1_Stream6_IRQHandler+0x14c>)
 8000bda:	681b      	ldr	r3, [r3, #0]
 8000bdc:	6cdb      	ldr	r3, [r3, #76]	@ 0x4c
 8000bde:	2b00      	cmp	r3, #0
 8000be0:	d021      	beq.n	8000c26 <DMA1_Stream6_IRQHandler+0x13e>
 8000be2:	4b14      	ldr	r3, [pc, #80]	@ (8000c34 <DMA1_Stream6_IRQHandler+0x14c>)
 8000be4:	681b      	ldr	r3, [r3, #0]
 8000be6:	6cdb      	ldr	r3, [r3, #76]	@ 0x4c
 8000be8:	4798      	blx	r3
 8000bea:	4b10      	ldr	r3, [pc, #64]	@ (8000c2c <DMA1_Stream6_IRQHandler+0x144>)
 8000bec:	68db      	ldr	r3, [r3, #12]
 8000bee:	4a0f      	ldr	r2, [pc, #60]	@ (8000c2c <DMA1_Stream6_IRQHandler+0x144>)
 8000bf0:	f443 1300 	orr.w	r3, r3, #2097152	@ 0x200000
 8000bf4:	60d3      	str	r3, [r2, #12]
 8000bf6:	4b0f      	ldr	r3, [pc, #60]	@ (8000c34 <DMA1_Stream6_IRQHandler+0x14c>)
 8000bf8:	681b      	ldr	r3, [r3, #0]
 8000bfa:	6b9b      	ldr	r3, [r3, #56]	@ 0x38
 8000bfc:	f44f 2280 	mov.w	r2, #262144	@ 0x40000
 8000c00:	4293      	cmp	r3, r2
 8000c02:	d110      	bne.n	8000c26 <DMA1_Stream6_IRQHandler+0x13e>
 8000c04:	4b0b      	ldr	r3, [pc, #44]	@ (8000c34 <DMA1_Stream6_IRQHandler+0x14c>)
 8000c06:	681b      	ldr	r3, [r3, #0]
 8000c08:	685b      	ldr	r3, [r3, #4]
 8000c0a:	681b      	ldr	r3, [r3, #0]
 8000c0c:	f403 2380 	and.w	r3, r3, #262144	@ 0x40000
 8000c10:	2b00      	cmp	r3, #0
 8000c12:	d004      	beq.n	8000c1e <DMA1_Stream6_IRQHandler+0x136>
 8000c14:	4b07      	ldr	r3, [pc, #28]	@ (8000c34 <DMA1_Stream6_IRQHandler+0x14c>)
 8000c16:	681b      	ldr	r3, [r3, #0]
 8000c18:	6d1b      	ldr	r3, [r3, #80]	@ 0x50
 8000c1a:	4798      	blx	r3
 8000c1c:	e003      	b.n	8000c26 <DMA1_Stream6_IRQHandler+0x13e>
 8000c1e:	4b05      	ldr	r3, [pc, #20]	@ (8000c34 <DMA1_Stream6_IRQHandler+0x14c>)
 8000c20:	681b      	ldr	r3, [r3, #0]
 8000c22:	6d5b      	ldr	r3, [r3, #84]	@ 0x54
 8000c24:	4798      	blx	r3
 8000c26:	bf00      	nop
 8000c28:	bd80      	pop	{r7, pc}
 8000c2a:	bf00      	nop
 8000c2c:	40026000 	.word	0x40026000
 8000c30:	20000064 	.word	0x20000064
 8000c34:	20000038 	.word	0x20000038

08000c38 <DMA1_Stream7_IRQHandler>:
 8000c38:	b580      	push	{r7, lr}
 8000c3a:	af00      	add	r7, sp, #0
 8000c3c:	4b4f      	ldr	r3, [pc, #316]	@ (8000d7c <DMA1_Stream7_IRQHandler+0x144>)
 8000c3e:	685b      	ldr	r3, [r3, #4]
 8000c40:	4a4f      	ldr	r2, [pc, #316]	@ (8000d80 <DMA1_Stream7_IRQHandler+0x148>)
 8000c42:	6013      	str	r3, [r2, #0]
 8000c44:	4b4e      	ldr	r3, [pc, #312]	@ (8000d80 <DMA1_Stream7_IRQHandler+0x148>)
 8000c46:	681b      	ldr	r3, [r3, #0]
 8000c48:	f403 0380 	and.w	r3, r3, #4194304	@ 0x400000
 8000c4c:	2b00      	cmp	r3, #0
 8000c4e:	d00e      	beq.n	8000c6e <DMA1_Stream7_IRQHandler+0x36>
 8000c50:	4b4c      	ldr	r3, [pc, #304]	@ (8000d84 <DMA1_Stream7_IRQHandler+0x14c>)
 8000c52:	681b      	ldr	r3, [r3, #0]
 8000c54:	6bdb      	ldr	r3, [r3, #60]	@ 0x3c
 8000c56:	2b00      	cmp	r3, #0
 8000c58:	d009      	beq.n	8000c6e <DMA1_Stream7_IRQHandler+0x36>
 8000c5a:	4b4a      	ldr	r3, [pc, #296]	@ (8000d84 <DMA1_Stream7_IRQHandler+0x14c>)
 8000c5c:	681b      	ldr	r3, [r3, #0]
 8000c5e:	6bdb      	ldr	r3, [r3, #60]	@ 0x3c
 8000c60:	4798      	blx	r3
 8000c62:	4b46      	ldr	r3, [pc, #280]	@ (8000d7c <DMA1_Stream7_IRQHandler+0x144>)
 8000c64:	68db      	ldr	r3, [r3, #12]
 8000c66:	4a45      	ldr	r2, [pc, #276]	@ (8000d7c <DMA1_Stream7_IRQHandler+0x144>)
 8000c68:	f443 0380 	orr.w	r3, r3, #4194304	@ 0x400000
 8000c6c:	60d3      	str	r3, [r2, #12]
 8000c6e:	4b44      	ldr	r3, [pc, #272]	@ (8000d80 <DMA1_Stream7_IRQHandler+0x148>)
 8000c70:	681b      	ldr	r3, [r3, #0]
 8000c72:	f003 7380 	and.w	r3, r3, #16777216	@ 0x1000000
 8000c76:	2b00      	cmp	r3, #0
 8000c78:	d00e      	beq.n	8000c98 <DMA1_Stream7_IRQHandler+0x60>
 8000c7a:	4b42      	ldr	r3, [pc, #264]	@ (8000d84 <DMA1_Stream7_IRQHandler+0x14c>)
 8000c7c:	681b      	ldr	r3, [r3, #0]
 8000c7e:	6c1b      	ldr	r3, [r3, #64]	@ 0x40
 8000c80:	2b00      	cmp	r3, #0
 8000c82:	d009      	beq.n	8000c98 <DMA1_Stream7_IRQHandler+0x60>
 8000c84:	4b3f      	ldr	r3, [pc, #252]	@ (8000d84 <DMA1_Stream7_IRQHandler+0x14c>)
 8000c86:	681b      	ldr	r3, [r3, #0]
 8000c88:	6c1b      	ldr	r3, [r3, #64]	@ 0x40
 8000c8a:	4798      	blx	r3
 8000c8c:	4b3b      	ldr	r3, [pc, #236]	@ (8000d7c <DMA1_Stream7_IRQHandler+0x144>)
 8000c8e:	68db      	ldr	r3, [r3, #12]
 8000c90:	4a3a      	ldr	r2, [pc, #232]	@ (8000d7c <DMA1_Stream7_IRQHandler+0x144>)
 8000c92:	f043 7380 	orr.w	r3, r3, #16777216	@ 0x1000000
 8000c96:	60d3      	str	r3, [r2, #12]
 8000c98:	4b39      	ldr	r3, [pc, #228]	@ (8000d80 <DMA1_Stream7_IRQHandler+0x148>)
 8000c9a:	681b      	ldr	r3, [r3, #0]
 8000c9c:	f003 7300 	and.w	r3, r3, #33554432	@ 0x2000000
 8000ca0:	2b00      	cmp	r3, #0
 8000ca2:	d00e      	beq.n	8000cc2 <DMA1_Stream7_IRQHandler+0x8a>
 8000ca4:	4b37      	ldr	r3, [pc, #220]	@ (8000d84 <DMA1_Stream7_IRQHandler+0x14c>)
 8000ca6:	681b      	ldr	r3, [r3, #0]
 8000ca8:	6c5b      	ldr	r3, [r3, #68]	@ 0x44
 8000caa:	2b00      	cmp	r3, #0
 8000cac:	d009      	beq.n	8000cc2 <DMA1_Stream7_IRQHandler+0x8a>
 8000cae:	4b35      	ldr	r3, [pc, #212]	@ (8000d84 <DMA1_Stream7_IRQHandler+0x14c>)
 8000cb0:	681b      	ldr	r3, [r3, #0]
 8000cb2:	6c5b      	ldr	r3, [r3, #68]	@ 0x44
 8000cb4:	4798      	blx	r3
 8000cb6:	4b31      	ldr	r3, [pc, #196]	@ (8000d7c <DMA1_Stream7_IRQHandler+0x144>)
 8000cb8:	68db      	ldr	r3, [r3, #12]
 8000cba:	4a30      	ldr	r2, [pc, #192]	@ (8000d7c <DMA1_Stream7_IRQHandler+0x144>)
 8000cbc:	f043 7300 	orr.w	r3, r3, #33554432	@ 0x2000000
 8000cc0:	60d3      	str	r3, [r2, #12]
 8000cc2:	4b2f      	ldr	r3, [pc, #188]	@ (8000d80 <DMA1_Stream7_IRQHandler+0x148>)
 8000cc4:	681b      	ldr	r3, [r3, #0]
 8000cc6:	f003 6380 	and.w	r3, r3, #67108864	@ 0x4000000
 8000cca:	2b00      	cmp	r3, #0
 8000ccc:	d026      	beq.n	8000d1c <DMA1_Stream7_IRQHandler+0xe4>
 8000cce:	4b2d      	ldr	r3, [pc, #180]	@ (8000d84 <DMA1_Stream7_IRQHandler+0x14c>)
 8000cd0:	681b      	ldr	r3, [r3, #0]
 8000cd2:	6c9b      	ldr	r3, [r3, #72]	@ 0x48
 8000cd4:	2b00      	cmp	r3, #0
 8000cd6:	d021      	beq.n	8000d1c <DMA1_Stream7_IRQHandler+0xe4>
 8000cd8:	4b2a      	ldr	r3, [pc, #168]	@ (8000d84 <DMA1_Stream7_IRQHandler+0x14c>)
 8000cda:	681b      	ldr	r3, [r3, #0]
 8000cdc:	6c9b      	ldr	r3, [r3, #72]	@ 0x48
 8000cde:	4798      	blx	r3
 8000ce0:	4b26      	ldr	r3, [pc, #152]	@ (8000d7c <DMA1_Stream7_IRQHandler+0x144>)
 8000ce2:	68db      	ldr	r3, [r3, #12]
 8000ce4:	4a25      	ldr	r2, [pc, #148]	@ (8000d7c <DMA1_Stream7_IRQHandler+0x144>)
 8000ce6:	f043 6380 	orr.w	r3, r3, #67108864	@ 0x4000000
 8000cea:	60d3      	str	r3, [r2, #12]
 8000cec:	4b25      	ldr	r3, [pc, #148]	@ (8000d84 <DMA1_Stream7_IRQHandler+0x14c>)
 8000cee:	681b      	ldr	r3, [r3, #0]
 8000cf0:	6b9b      	ldr	r3, [r3, #56]	@ 0x38
 8000cf2:	f44f 2280 	mov.w	r2, #262144	@ 0x40000
 8000cf6:	4293      	cmp	r3, r2
 8000cf8:	d110      	bne.n	8000d1c <DMA1_Stream7_IRQHandler+0xe4>
 8000cfa:	4b22      	ldr	r3, [pc, #136]	@ (8000d84 <DMA1_Stream7_IRQHandler+0x14c>)
 8000cfc:	681b      	ldr	r3, [r3, #0]
 8000cfe:	685b      	ldr	r3, [r3, #4]
 8000d00:	681b      	ldr	r3, [r3, #0]
 8000d02:	f403 2380 	and.w	r3, r3, #262144	@ 0x40000
 8000d06:	2b00      	cmp	r3, #0
 8000d08:	d004      	beq.n	8000d14 <DMA1_Stream7_IRQHandler+0xdc>
 8000d0a:	4b1e      	ldr	r3, [pc, #120]	@ (8000d84 <DMA1_Stream7_IRQHandler+0x14c>)
 8000d0c:	681b      	ldr	r3, [r3, #0]
 8000d0e:	6d1b      	ldr	r3, [r3, #80]	@ 0x50
 8000d10:	4798      	blx	r3
 8000d12:	e003      	b.n	8000d1c <DMA1_Stream7_IRQHandler+0xe4>
 8000d14:	4b1b      	ldr	r3, [pc, #108]	@ (8000d84 <DMA1_Stream7_IRQHandler+0x14c>)
 8000d16:	681b      	ldr	r3, [r3, #0]
 8000d18:	6d5b      	ldr	r3, [r3, #84]	@ 0x54
 8000d1a:	4798      	blx	r3
 8000d1c:	4b18      	ldr	r3, [pc, #96]	@ (8000d80 <DMA1_Stream7_IRQHandler+0x148>)
 8000d1e:	681b      	ldr	r3, [r3, #0]
 8000d20:	f003 6300 	and.w	r3, r3, #134217728	@ 0x8000000
 8000d24:	2b00      	cmp	r3, #0
 8000d26:	d026      	beq.n	8000d76 <DMA1_Stream7_IRQHandler+0x13e>
 8000d28:	4b16      	ldr	r3, [pc, #88]	@ (8000d84 <DMA1_Stream7_IRQHandler+0x14c>)
 8000d2a:	681b      	ldr	r3, [r3, #0]
 8000d2c:	6cdb      	ldr	r3, [r3, #76]	@ 0x4c
 8000d2e:	2b00      	cmp	r3, #0
 8000d30:	d021      	beq.n	8000d76 <DMA1_Stream7_IRQHandler+0x13e>
 8000d32:	4b14      	ldr	r3, [pc, #80]	@ (8000d84 <DMA1_Stream7_IRQHandler+0x14c>)
 8000d34:	681b      	ldr	r3, [r3, #0]
 8000d36:	6cdb      	ldr	r3, [r3, #76]	@ 0x4c
 8000d38:	4798      	blx	r3
 8000d3a:	4b10      	ldr	r3, [pc, #64]	@ (8000d7c <DMA1_Stream7_IRQHandler+0x144>)
 8000d3c:	68db      	ldr	r3, [r3, #12]
 8000d3e:	4a0f      	ldr	r2, [pc, #60]	@ (8000d7c <DMA1_Stream7_IRQHandler+0x144>)
 8000d40:	f043 6300 	orr.w	r3, r3, #134217728	@ 0x8000000
 8000d44:	60d3      	str	r3, [r2, #12]
 8000d46:	4b0f      	ldr	r3, [pc, #60]	@ (8000d84 <DMA1_Stream7_IRQHandler+0x14c>)
 8000d48:	681b      	ldr	r3, [r3, #0]
 8000d4a:	6b9b      	ldr	r3, [r3, #56]	@ 0x38
 8000d4c:	f44f 2280 	mov.w	r2, #262144	@ 0x40000
 8000d50:	4293      	cmp	r3, r2
 8000d52:	d110      	bne.n	8000d76 <DMA1_Stream7_IRQHandler+0x13e>
 8000d54:	4b0b      	ldr	r3, [pc, #44]	@ (8000d84 <DMA1_Stream7_IRQHandler+0x14c>)
 8000d56:	681b      	ldr	r3, [r3, #0]
 8000d58:	685b      	ldr	r3, [r3, #4]
 8000d5a:	681b      	ldr	r3, [r3, #0]
 8000d5c:	f403 2380 	and.w	r3, r3, #262144	@ 0x40000
 8000d60:	2b00      	cmp	r3, #0
 8000d62:	d004      	beq.n	8000d6e <DMA1_Stream7_IRQHandler+0x136>
 8000d64:	4b07      	ldr	r3, [pc, #28]	@ (8000d84 <DMA1_Stream7_IRQHandler+0x14c>)
 8000d66:	681b      	ldr	r3, [r3, #0]
 8000d68:	6d1b      	ldr	r3, [r3, #80]	@ 0x50
 8000d6a:	4798      	blx	r3
 8000d6c:	e003      	b.n	8000d76 <DMA1_Stream7_IRQHandler+0x13e>
 8000d6e:	4b05      	ldr	r3, [pc, #20]	@ (8000d84 <DMA1_Stream7_IRQHandler+0x14c>)
 8000d70:	681b      	ldr	r3, [r3, #0]
 8000d72:	6d5b      	ldr	r3, [r3, #84]	@ 0x54
 8000d74:	4798      	blx	r3
 8000d76:	bf00      	nop
 8000d78:	bd80      	pop	{r7, pc}
 8000d7a:	bf00      	nop
 8000d7c:	40026000 	.word	0x40026000
 8000d80:	20000064 	.word	0x20000064
 8000d84:	2000003c 	.word	0x2000003c

08000d88 <DMA2_Stream0_IRQHandler>:
 8000d88:	b580      	push	{r7, lr}
 8000d8a:	af00      	add	r7, sp, #0
 8000d8c:	4b60      	ldr	r3, [pc, #384]	@ (8000f10 <DMA2_Stream0_IRQHandler+0x188>)
 8000d8e:	681b      	ldr	r3, [r3, #0]
 8000d90:	4a60      	ldr	r2, [pc, #384]	@ (8000f14 <DMA2_Stream0_IRQHandler+0x18c>)
 8000d92:	6013      	str	r3, [r2, #0]
 8000d94:	4b5f      	ldr	r3, [pc, #380]	@ (8000f14 <DMA2_Stream0_IRQHandler+0x18c>)
 8000d96:	681b      	ldr	r3, [r3, #0]
 8000d98:	f003 0301 	and.w	r3, r3, #1
 8000d9c:	2b00      	cmp	r3, #0
 8000d9e:	d015      	beq.n	8000dcc <DMA2_Stream0_IRQHandler+0x44>
 8000da0:	4b5d      	ldr	r3, [pc, #372]	@ (8000f18 <DMA2_Stream0_IRQHandler+0x190>)
 8000da2:	681b      	ldr	r3, [r3, #0]
 8000da4:	69db      	ldr	r3, [r3, #28]
 8000da6:	2280      	movs	r2, #128	@ 0x80
 8000da8:	4013      	ands	r3, r2
 8000daa:	2b00      	cmp	r3, #0
 8000dac:	d00e      	beq.n	8000dcc <DMA2_Stream0_IRQHandler+0x44>
 8000dae:	4b5a      	ldr	r3, [pc, #360]	@ (8000f18 <DMA2_Stream0_IRQHandler+0x190>)
 8000db0:	681b      	ldr	r3, [r3, #0]
 8000db2:	6bdb      	ldr	r3, [r3, #60]	@ 0x3c
 8000db4:	2b00      	cmp	r3, #0
 8000db6:	d009      	beq.n	8000dcc <DMA2_Stream0_IRQHandler+0x44>
 8000db8:	4b57      	ldr	r3, [pc, #348]	@ (8000f18 <DMA2_Stream0_IRQHandler+0x190>)
 8000dba:	681b      	ldr	r3, [r3, #0]
 8000dbc:	6bdb      	ldr	r3, [r3, #60]	@ 0x3c
 8000dbe:	4798      	blx	r3
 8000dc0:	4b53      	ldr	r3, [pc, #332]	@ (8000f10 <DMA2_Stream0_IRQHandler+0x188>)
 8000dc2:	689b      	ldr	r3, [r3, #8]
 8000dc4:	4a52      	ldr	r2, [pc, #328]	@ (8000f10 <DMA2_Stream0_IRQHandler+0x188>)
 8000dc6:	f043 0301 	orr.w	r3, r3, #1
 8000dca:	6093      	str	r3, [r2, #8]
 8000dcc:	4b51      	ldr	r3, [pc, #324]	@ (8000f14 <DMA2_Stream0_IRQHandler+0x18c>)
 8000dce:	681b      	ldr	r3, [r3, #0]
 8000dd0:	f003 0304 	and.w	r3, r3, #4
 8000dd4:	2b00      	cmp	r3, #0
 8000dd6:	d015      	beq.n	8000e04 <DMA2_Stream0_IRQHandler+0x7c>
 8000dd8:	4b4f      	ldr	r3, [pc, #316]	@ (8000f18 <DMA2_Stream0_IRQHandler+0x190>)
 8000dda:	681b      	ldr	r3, [r3, #0]
 8000ddc:	69db      	ldr	r3, [r3, #28]
 8000dde:	2202      	movs	r2, #2
 8000de0:	4013      	ands	r3, r2
 8000de2:	2b00      	cmp	r3, #0
 8000de4:	d00e      	beq.n	8000e04 <DMA2_Stream0_IRQHandler+0x7c>
 8000de6:	4b4c      	ldr	r3, [pc, #304]	@ (8000f18 <DMA2_Stream0_IRQHandler+0x190>)
 8000de8:	681b      	ldr	r3, [r3, #0]
 8000dea:	6c1b      	ldr	r3, [r3, #64]	@ 0x40
 8000dec:	2b00      	cmp	r3, #0
 8000dee:	d009      	beq.n	8000e04 <DMA2_Stream0_IRQHandler+0x7c>
 8000df0:	4b49      	ldr	r3, [pc, #292]	@ (8000f18 <DMA2_Stream0_IRQHandler+0x190>)
 8000df2:	681b      	ldr	r3, [r3, #0]
 8000df4:	6c1b      	ldr	r3, [r3, #64]	@ 0x40
 8000df6:	4798      	blx	r3
 8000df8:	4b45      	ldr	r3, [pc, #276]	@ (8000f10 <DMA2_Stream0_IRQHandler+0x188>)
 8000dfa:	689b      	ldr	r3, [r3, #8]
 8000dfc:	4a44      	ldr	r2, [pc, #272]	@ (8000f10 <DMA2_Stream0_IRQHandler+0x188>)
 8000dfe:	f043 0304 	orr.w	r3, r3, #4
 8000e02:	6093      	str	r3, [r2, #8]
 8000e04:	4b43      	ldr	r3, [pc, #268]	@ (8000f14 <DMA2_Stream0_IRQHandler+0x18c>)
 8000e06:	681b      	ldr	r3, [r3, #0]
 8000e08:	f003 0308 	and.w	r3, r3, #8
 8000e0c:	2b00      	cmp	r3, #0
 8000e0e:	d015      	beq.n	8000e3c <DMA2_Stream0_IRQHandler+0xb4>
 8000e10:	4b41      	ldr	r3, [pc, #260]	@ (8000f18 <DMA2_Stream0_IRQHandler+0x190>)
 8000e12:	681b      	ldr	r3, [r3, #0]
 8000e14:	69db      	ldr	r3, [r3, #28]
 8000e16:	2204      	movs	r2, #4
 8000e18:	4013      	ands	r3, r2
 8000e1a:	2b00      	cmp	r3, #0
 8000e1c:	d00e      	beq.n	8000e3c <DMA2_Stream0_IRQHandler+0xb4>
 8000e1e:	4b3e      	ldr	r3, [pc, #248]	@ (8000f18 <DMA2_Stream0_IRQHandler+0x190>)
 8000e20:	681b      	ldr	r3, [r3, #0]
 8000e22:	6c5b      	ldr	r3, [r3, #68]	@ 0x44
 8000e24:	2b00      	cmp	r3, #0
 8000e26:	d009      	beq.n	8000e3c <DMA2_Stream0_IRQHandler+0xb4>
 8000e28:	4b3b      	ldr	r3, [pc, #236]	@ (8000f18 <DMA2_Stream0_IRQHandler+0x190>)
 8000e2a:	681b      	ldr	r3, [r3, #0]
 8000e2c:	6c5b      	ldr	r3, [r3, #68]	@ 0x44
 8000e2e:	4798      	blx	r3
 8000e30:	4b37      	ldr	r3, [pc, #220]	@ (8000f10 <DMA2_Stream0_IRQHandler+0x188>)
 8000e32:	689b      	ldr	r3, [r3, #8]
 8000e34:	4a36      	ldr	r2, [pc, #216]	@ (8000f10 <DMA2_Stream0_IRQHandler+0x188>)
 8000e36:	f043 0308 	orr.w	r3, r3, #8
 8000e3a:	6093      	str	r3, [r2, #8]
 8000e3c:	4b35      	ldr	r3, [pc, #212]	@ (8000f14 <DMA2_Stream0_IRQHandler+0x18c>)
 8000e3e:	681b      	ldr	r3, [r3, #0]
 8000e40:	f003 0310 	and.w	r3, r3, #16
 8000e44:	2b00      	cmp	r3, #0
 8000e46:	d02d      	beq.n	8000ea4 <DMA2_Stream0_IRQHandler+0x11c>
 8000e48:	4b33      	ldr	r3, [pc, #204]	@ (8000f18 <DMA2_Stream0_IRQHandler+0x190>)
 8000e4a:	681b      	ldr	r3, [r3, #0]
 8000e4c:	69db      	ldr	r3, [r3, #28]
 8000e4e:	2208      	movs	r2, #8
 8000e50:	4013      	ands	r3, r2
 8000e52:	2b00      	cmp	r3, #0
 8000e54:	d026      	beq.n	8000ea4 <DMA2_Stream0_IRQHandler+0x11c>
 8000e56:	4b30      	ldr	r3, [pc, #192]	@ (8000f18 <DMA2_Stream0_IRQHandler+0x190>)
 8000e58:	681b      	ldr	r3, [r3, #0]
 8000e5a:	6c9b      	ldr	r3, [r3, #72]	@ 0x48
 8000e5c:	2b00      	cmp	r3, #0
 8000e5e:	d021      	beq.n	8000ea4 <DMA2_Stream0_IRQHandler+0x11c>
 8000e60:	4b2d      	ldr	r3, [pc, #180]	@ (8000f18 <DMA2_Stream0_IRQHandler+0x190>)
 8000e62:	681b      	ldr	r3, [r3, #0]
 8000e64:	6c9b      	ldr	r3, [r3, #72]	@ 0x48
 8000e66:	4798      	blx	r3
 8000e68:	4b29      	ldr	r3, [pc, #164]	@ (8000f10 <DMA2_Stream0_IRQHandler+0x188>)
 8000e6a:	689b      	ldr	r3, [r3, #8]
 8000e6c:	4a28      	ldr	r2, [pc, #160]	@ (8000f10 <DMA2_Stream0_IRQHandler+0x188>)
 8000e6e:	f043 0310 	orr.w	r3, r3, #16
 8000e72:	6093      	str	r3, [r2, #8]
 8000e74:	4b28      	ldr	r3, [pc, #160]	@ (8000f18 <DMA2_Stream0_IRQHandler+0x190>)
 8000e76:	681b      	ldr	r3, [r3, #0]
 8000e78:	6b9b      	ldr	r3, [r3, #56]	@ 0x38
 8000e7a:	f44f 2280 	mov.w	r2, #262144	@ 0x40000
 8000e7e:	4293      	cmp	r3, r2
 8000e80:	d110      	bne.n	8000ea4 <DMA2_Stream0_IRQHandler+0x11c>
 8000e82:	4b25      	ldr	r3, [pc, #148]	@ (8000f18 <DMA2_Stream0_IRQHandler+0x190>)
 8000e84:	681b      	ldr	r3, [r3, #0]
 8000e86:	685b      	ldr	r3, [r3, #4]
 8000e88:	681b      	ldr	r3, [r3, #0]
 8000e8a:	f403 2380 	and.w	r3, r3, #262144	@ 0x40000
 8000e8e:	2b00      	cmp	r3, #0
 8000e90:	d004      	beq.n	8000e9c <DMA2_Stream0_IRQHandler+0x114>
 8000e92:	4b21      	ldr	r3, [pc, #132]	@ (8000f18 <DMA2_Stream0_IRQHandler+0x190>)
 8000e94:	681b      	ldr	r3, [r3, #0]
 8000e96:	6d1b      	ldr	r3, [r3, #80]	@ 0x50
 8000e98:	4798      	blx	r3
 8000e9a:	e003      	b.n	8000ea4 <DMA2_Stream0_IRQHandler+0x11c>
 8000e9c:	4b1e      	ldr	r3, [pc, #120]	@ (8000f18 <DMA2_Stream0_IRQHandler+0x190>)
 8000e9e:	681b      	ldr	r3, [r3, #0]
 8000ea0:	6d5b      	ldr	r3, [r3, #84]	@ 0x54
 8000ea2:	4798      	blx	r3
 8000ea4:	4b1b      	ldr	r3, [pc, #108]	@ (8000f14 <DMA2_Stream0_IRQHandler+0x18c>)
 8000ea6:	681b      	ldr	r3, [r3, #0]
 8000ea8:	f003 0320 	and.w	r3, r3, #32
 8000eac:	2b00      	cmp	r3, #0
 8000eae:	d02d      	beq.n	8000f0c <DMA2_Stream0_IRQHandler+0x184>
 8000eb0:	4b19      	ldr	r3, [pc, #100]	@ (8000f18 <DMA2_Stream0_IRQHandler+0x190>)
 8000eb2:	681b      	ldr	r3, [r3, #0]
 8000eb4:	69db      	ldr	r3, [r3, #28]
 8000eb6:	2210      	movs	r2, #16
 8000eb8:	4013      	ands	r3, r2
 8000eba:	2b00      	cmp	r3, #0
 8000ebc:	d026      	beq.n	8000f0c <DMA2_Stream0_IRQHandler+0x184>
 8000ebe:	4b16      	ldr	r3, [pc, #88]	@ (8000f18 <DMA2_Stream0_IRQHandler+0x190>)
 8000ec0:	681b      	ldr	r3, [r3, #0]
 8000ec2:	6cdb      	ldr	r3, [r3, #76]	@ 0x4c
 8000ec4:	2b00      	cmp	r3, #0
 8000ec6:	d021      	beq.n	8000f0c <DMA2_Stream0_IRQHandler+0x184>
 8000ec8:	4b13      	ldr	r3, [pc, #76]	@ (8000f18 <DMA2_Stream0_IRQHandler+0x190>)
 8000eca:	681b      	ldr	r3, [r3, #0]
 8000ecc:	6cdb      	ldr	r3, [r3, #76]	@ 0x4c
 8000ece:	4798      	blx	r3
 8000ed0:	4b0f      	ldr	r3, [pc, #60]	@ (8000f10 <DMA2_Stream0_IRQHandler+0x188>)
 8000ed2:	689b      	ldr	r3, [r3, #8]
 8000ed4:	4a0e      	ldr	r2, [pc, #56]	@ (8000f10 <DMA2_Stream0_IRQHandler+0x188>)
 8000ed6:	f043 0320 	orr.w	r3, r3, #32
 8000eda:	6093      	str	r3, [r2, #8]
 8000edc:	4b0e      	ldr	r3, [pc, #56]	@ (8000f18 <DMA2_Stream0_IRQHandler+0x190>)
 8000ede:	681b      	ldr	r3, [r3, #0]
 8000ee0:	6b9b      	ldr	r3, [r3, #56]	@ 0x38
 8000ee2:	f44f 2280 	mov.w	r2, #262144	@ 0x40000
 8000ee6:	4293      	cmp	r3, r2
 8000ee8:	d110      	bne.n	8000f0c <DMA2_Stream0_IRQHandler+0x184>
 8000eea:	4b0b      	ldr	r3, [pc, #44]	@ (8000f18 <DMA2_Stream0_IRQHandler+0x190>)
 8000eec:	681b      	ldr	r3, [r3, #0]
 8000eee:	685b      	ldr	r3, [r3, #4]
 8000ef0:	681b      	ldr	r3, [r3, #0]
 8000ef2:	f403 2380 	and.w	r3, r3, #262144	@ 0x40000
 8000ef6:	2b00      	cmp	r3, #0
 8000ef8:	d004      	beq.n	8000f04 <DMA2_Stream0_IRQHandler+0x17c>
 8000efa:	4b07      	ldr	r3, [pc, #28]	@ (8000f18 <DMA2_Stream0_IRQHandler+0x190>)
 8000efc:	681b      	ldr	r3, [r3, #0]
 8000efe:	6d1b      	ldr	r3, [r3, #80]	@ 0x50
 8000f00:	4798      	blx	r3
 8000f02:	e003      	b.n	8000f0c <DMA2_Stream0_IRQHandler+0x184>
 8000f04:	4b04      	ldr	r3, [pc, #16]	@ (8000f18 <DMA2_Stream0_IRQHandler+0x190>)
 8000f06:	681b      	ldr	r3, [r3, #0]
 8000f08:	6d5b      	ldr	r3, [r3, #84]	@ 0x54
 8000f0a:	4798      	blx	r3
 8000f0c:	bf00      	nop
 8000f0e:	bd80      	pop	{r7, pc}
 8000f10:	40026400 	.word	0x40026400
 8000f14:	20000060 	.word	0x20000060
 8000f18:	20000040 	.word	0x20000040

08000f1c <DMA2_Stream1_IRQHandler>:
 8000f1c:	b580      	push	{r7, lr}
 8000f1e:	af00      	add	r7, sp, #0
 8000f20:	4b4f      	ldr	r3, [pc, #316]	@ (8001060 <DMA2_Stream1_IRQHandler+0x144>)
 8000f22:	681b      	ldr	r3, [r3, #0]
 8000f24:	4a4f      	ldr	r2, [pc, #316]	@ (8001064 <DMA2_Stream1_IRQHandler+0x148>)
 8000f26:	6013      	str	r3, [r2, #0]
 8000f28:	4b4e      	ldr	r3, [pc, #312]	@ (8001064 <DMA2_Stream1_IRQHandler+0x148>)
 8000f2a:	681b      	ldr	r3, [r3, #0]
 8000f2c:	f003 0340 	and.w	r3, r3, #64	@ 0x40
 8000f30:	2b00      	cmp	r3, #0
 8000f32:	d00e      	beq.n	8000f52 <DMA2_Stream1_IRQHandler+0x36>
 8000f34:	4b4c      	ldr	r3, [pc, #304]	@ (8001068 <DMA2_Stream1_IRQHandler+0x14c>)
 8000f36:	681b      	ldr	r3, [r3, #0]
 8000f38:	6bdb      	ldr	r3, [r3, #60]	@ 0x3c
 8000f3a:	2b00      	cmp	r3, #0
 8000f3c:	d009      	beq.n	8000f52 <DMA2_Stream1_IRQHandler+0x36>
 8000f3e:	4b4a      	ldr	r3, [pc, #296]	@ (8001068 <DMA2_Stream1_IRQHandler+0x14c>)
 8000f40:	681b      	ldr	r3, [r3, #0]
 8000f42:	6bdb      	ldr	r3, [r3, #60]	@ 0x3c
 8000f44:	4798      	blx	r3
 8000f46:	4b46      	ldr	r3, [pc, #280]	@ (8001060 <DMA2_Stream1_IRQHandler+0x144>)
 8000f48:	689b      	ldr	r3, [r3, #8]
 8000f4a:	4a45      	ldr	r2, [pc, #276]	@ (8001060 <DMA2_Stream1_IRQHandler+0x144>)
 8000f4c:	f043 0340 	orr.w	r3, r3, #64	@ 0x40
 8000f50:	6093      	str	r3, [r2, #8]
 8000f52:	4b44      	ldr	r3, [pc, #272]	@ (8001064 <DMA2_Stream1_IRQHandler+0x148>)
 8000f54:	681b      	ldr	r3, [r3, #0]
 8000f56:	f403 7380 	and.w	r3, r3, #256	@ 0x100
 8000f5a:	2b00      	cmp	r3, #0
 8000f5c:	d00e      	beq.n	8000f7c <DMA2_Stream1_IRQHandler+0x60>
 8000f5e:	4b42      	ldr	r3, [pc, #264]	@ (8001068 <DMA2_Stream1_IRQHandler+0x14c>)
 8000f60:	681b      	ldr	r3, [r3, #0]
 8000f62:	6c1b      	ldr	r3, [r3, #64]	@ 0x40
 8000f64:	2b00      	cmp	r3, #0
 8000f66:	d009      	beq.n	8000f7c <DMA2_Stream1_IRQHandler+0x60>
 8000f68:	4b3f      	ldr	r3, [pc, #252]	@ (8001068 <DMA2_Stream1_IRQHandler+0x14c>)
 8000f6a:	681b      	ldr	r3, [r3, #0]
 8000f6c:	6c1b      	ldr	r3, [r3, #64]	@ 0x40
 8000f6e:	4798      	blx	r3
 8000f70:	4b3b      	ldr	r3, [pc, #236]	@ (8001060 <DMA2_Stream1_IRQHandler+0x144>)
 8000f72:	689b      	ldr	r3, [r3, #8]
 8000f74:	4a3a      	ldr	r2, [pc, #232]	@ (8001060 <DMA2_Stream1_IRQHandler+0x144>)
 8000f76:	f443 7380 	orr.w	r3, r3, #256	@ 0x100
 8000f7a:	6093      	str	r3, [r2, #8]
 8000f7c:	4b39      	ldr	r3, [pc, #228]	@ (8001064 <DMA2_Stream1_IRQHandler+0x148>)
 8000f7e:	681b      	ldr	r3, [r3, #0]
 8000f80:	f403 7300 	and.w	r3, r3, #512	@ 0x200
 8000f84:	2b00      	cmp	r3, #0
 8000f86:	d00e      	beq.n	8000fa6 <DMA2_Stream1_IRQHandler+0x8a>
 8000f88:	4b37      	ldr	r3, [pc, #220]	@ (8001068 <DMA2_Stream1_IRQHandler+0x14c>)
 8000f8a:	681b      	ldr	r3, [r3, #0]
 8000f8c:	6c5b      	ldr	r3, [r3, #68]	@ 0x44
 8000f8e:	2b00      	cmp	r3, #0
 8000f90:	d009      	beq.n	8000fa6 <DMA2_Stream1_IRQHandler+0x8a>
 8000f92:	4b35      	ldr	r3, [pc, #212]	@ (8001068 <DMA2_Stream1_IRQHandler+0x14c>)
 8000f94:	681b      	ldr	r3, [r3, #0]
 8000f96:	6c5b      	ldr	r3, [r3, #68]	@ 0x44
 8000f98:	4798      	blx	r3
 8000f9a:	4b31      	ldr	r3, [pc, #196]	@ (8001060 <DMA2_Stream1_IRQHandler+0x144>)
 8000f9c:	689b      	ldr	r3, [r3, #8]
 8000f9e:	4a30      	ldr	r2, [pc, #192]	@ (8001060 <DMA2_Stream1_IRQHandler+0x144>)
 8000fa0:	f443 7300 	orr.w	r3, r3, #512	@ 0x200
 8000fa4:	6093      	str	r3, [r2, #8]
 8000fa6:	4b2f      	ldr	r3, [pc, #188]	@ (8001064 <DMA2_Stream1_IRQHandler+0x148>)
 8000fa8:	681b      	ldr	r3, [r3, #0]
 8000faa:	f403 6380 	and.w	r3, r3, #1024	@ 0x400
 8000fae:	2b00      	cmp	r3, #0
 8000fb0:	d026      	beq.n	8001000 <DMA2_Stream1_IRQHandler+0xe4>
 8000fb2:	4b2d      	ldr	r3, [pc, #180]	@ (8001068 <DMA2_Stream1_IRQHandler+0x14c>)
 8000fb4:	681b      	ldr	r3, [r3, #0]
 8000fb6:	6c9b      	ldr	r3, [r3, #72]	@ 0x48
 8000fb8:	2b00      	cmp	r3, #0
 8000fba:	d021      	beq.n	8001000 <DMA2_Stream1_IRQHandler+0xe4>
 8000fbc:	4b2a      	ldr	r3, [pc, #168]	@ (8001068 <DMA2_Stream1_IRQHandler+0x14c>)
 8000fbe:	681b      	ldr	r3, [r3, #0]
 8000fc0:	6c9b      	ldr	r3, [r3, #72]	@ 0x48
 8000fc2:	4798      	blx	r3
 8000fc4:	4b26      	ldr	r3, [pc, #152]	@ (8001060 <DMA2_Stream1_IRQHandler+0x144>)
 8000fc6:	689b      	ldr	r3, [r3, #8]
 8000fc8:	4a25      	ldr	r2, [pc, #148]	@ (8001060 <DMA2_Stream1_IRQHandler+0x144>)
 8000fca:	f443 6380 	orr.w	r3, r3, #1024	@ 0x400
 8000fce:	6093      	str	r3, [r2, #8]
 8000fd0:	4b25      	ldr	r3, [pc, #148]	@ (8001068 <DMA2_Stream1_IRQHandler+0x14c>)
 8000fd2:	681b      	ldr	r3, [r3, #0]
 8000fd4:	6b9b      	ldr	r3, [r3, #56]	@ 0x38
 8000fd6:	f44f 2280 	mov.w	r2, #262144	@ 0x40000
 8000fda:	4293      	cmp	r3, r2
 8000fdc:	d110      	bne.n	8001000 <DMA2_Stream1_IRQHandler+0xe4>
 8000fde:	4b22      	ldr	r3, [pc, #136]	@ (8001068 <DMA2_Stream1_IRQHandler+0x14c>)
 8000fe0:	681b      	ldr	r3, [r3, #0]
 8000fe2:	685b      	ldr	r3, [r3, #4]
 8000fe4:	681b      	ldr	r3, [r3, #0]
 8000fe6:	f403 2380 	and.w	r3, r3, #262144	@ 0x40000
 8000fea:	2b00      	cmp	r3, #0
 8000fec:	d004      	beq.n	8000ff8 <DMA2_Stream1_IRQHandler+0xdc>
 8000fee:	4b1e      	ldr	r3, [pc, #120]	@ (8001068 <DMA2_Stream1_IRQHandler+0x14c>)
 8000ff0:	681b      	ldr	r3, [r3, #0]
 8000ff2:	6d1b      	ldr	r3, [r3, #80]	@ 0x50
 8000ff4:	4798      	blx	r3
 8000ff6:	e003      	b.n	8001000 <DMA2_Stream1_IRQHandler+0xe4>
 8000ff8:	4b1b      	ldr	r3, [pc, #108]	@ (8001068 <DMA2_Stream1_IRQHandler+0x14c>)
 8000ffa:	681b      	ldr	r3, [r3, #0]
 8000ffc:	6d5b      	ldr	r3, [r3, #84]	@ 0x54
 8000ffe:	4798      	blx	r3
 8001000:	4b18      	ldr	r3, [pc, #96]	@ (8001064 <DMA2_Stream1_IRQHandler+0x148>)
 8001002:	681b      	ldr	r3, [r3, #0]
 8001004:	f403 6300 	and.w	r3, r3, #2048	@ 0x800
 8001008:	2b00      	cmp	r3, #0
 800100a:	d026      	beq.n	800105a <DMA2_Stream1_IRQHandler+0x13e>
 800100c:	4b16      	ldr	r3, [pc, #88]	@ (8001068 <DMA2_Stream1_IRQHandler+0x14c>)
 800100e:	681b      	ldr	r3, [r3, #0]
 8001010:	6cdb      	ldr	r3, [r3, #76]	@ 0x4c
 8001012:	2b00      	cmp	r3, #0
 8001014:	d021      	beq.n	800105a <DMA2_Stream1_IRQHandler+0x13e>
 8001016:	4b14      	ldr	r3, [pc, #80]	@ (8001068 <DMA2_Stream1_IRQHandler+0x14c>)
 8001018:	681b      	ldr	r3, [r3, #0]
 800101a:	6cdb      	ldr	r3, [r3, #76]	@ 0x4c
 800101c:	4798      	blx	r3
 800101e:	4b10      	ldr	r3, [pc, #64]	@ (8001060 <DMA2_Stream1_IRQHandler+0x144>)
 8001020:	689b      	ldr	r3, [r3, #8]
 8001022:	4a0f      	ldr	r2, [pc, #60]	@ (8001060 <DMA2_Stream1_IRQHandler+0x144>)
 8001024:	f443 6300 	orr.w	r3, r3, #2048	@ 0x800
 8001028:	6093      	str	r3, [r2, #8]
 800102a:	4b0f      	ldr	r3, [pc, #60]	@ (8001068 <DMA2_Stream1_IRQHandler+0x14c>)
 800102c:	681b      	ldr	r3, [r3, #0]
 800102e:	6b9b      	ldr	r3, [r3, #56]	@ 0x38
 8001030:	f44f 2280 	mov.w	r2, #262144	@ 0x40000
 8001034:	4293      	cmp	r3, r2
 8001036:	d110      	bne.n	800105a <DMA2_Stream1_IRQHandler+0x13e>
 8001038:	4b0b      	ldr	r3, [pc, #44]	@ (8001068 <DMA2_Stream1_IRQHandler+0x14c>)
 800103a:	681b      	ldr	r3, [r3, #0]
 800103c:	685b      	ldr	r3, [r3, #4]
 800103e:	681b      	ldr	r3, [r3, #0]
 8001040:	f403 2380 	and.w	r3, r3, #262144	@ 0x40000
 8001044:	2b00      	cmp	r3, #0
 8001046:	d004      	beq.n	8001052 <DMA2_Stream1_IRQHandler+0x136>
 8001048:	4b07      	ldr	r3, [pc, #28]	@ (8001068 <DMA2_Stream1_IRQHandler+0x14c>)
 800104a:	681b      	ldr	r3, [r3, #0]
 800104c:	6d1b      	ldr	r3, [r3, #80]	@ 0x50
 800104e:	4798      	blx	r3
 8001050:	e003      	b.n	800105a <DMA2_Stream1_IRQHandler+0x13e>
 8001052:	4b05      	ldr	r3, [pc, #20]	@ (8001068 <DMA2_Stream1_IRQHandler+0x14c>)
 8001054:	681b      	ldr	r3, [r3, #0]
 8001056:	6d5b      	ldr	r3, [r3, #84]	@ 0x54
 8001058:	4798      	blx	r3
 800105a:	bf00      	nop
 800105c:	bd80      	pop	{r7, pc}
 800105e:	bf00      	nop
 8001060:	40026400 	.word	0x40026400
 8001064:	20000060 	.word	0x20000060
 8001068:	20000044 	.word	0x20000044

0800106c <DMA2_Stream2_IRQHandler>:
 800106c:	b580      	push	{r7, lr}
 800106e:	af00      	add	r7, sp, #0
 8001070:	4b4f      	ldr	r3, [pc, #316]	@ (80011b0 <DMA2_Stream2_IRQHandler+0x144>)
 8001072:	681b      	ldr	r3, [r3, #0]
 8001074:	4a4f      	ldr	r2, [pc, #316]	@ (80011b4 <DMA2_Stream2_IRQHandler+0x148>)
 8001076:	6013      	str	r3, [r2, #0]
 8001078:	4b4e      	ldr	r3, [pc, #312]	@ (80011b4 <DMA2_Stream2_IRQHandler+0x148>)
 800107a:	681b      	ldr	r3, [r3, #0]
 800107c:	f403 3380 	and.w	r3, r3, #65536	@ 0x10000
 8001080:	2b00      	cmp	r3, #0
 8001082:	d00e      	beq.n	80010a2 <DMA2_Stream2_IRQHandler+0x36>
 8001084:	4b4c      	ldr	r3, [pc, #304]	@ (80011b8 <DMA2_Stream2_IRQHandler+0x14c>)
 8001086:	681b      	ldr	r3, [r3, #0]
 8001088:	6bdb      	ldr	r3, [r3, #60]	@ 0x3c
 800108a:	2b00      	cmp	r3, #0
 800108c:	d009      	beq.n	80010a2 <DMA2_Stream2_IRQHandler+0x36>
 800108e:	4b4a      	ldr	r3, [pc, #296]	@ (80011b8 <DMA2_Stream2_IRQHandler+0x14c>)
 8001090:	681b      	ldr	r3, [r3, #0]
 8001092:	6bdb      	ldr	r3, [r3, #60]	@ 0x3c
 8001094:	4798      	blx	r3
 8001096:	4b46      	ldr	r3, [pc, #280]	@ (80011b0 <DMA2_Stream2_IRQHandler+0x144>)
 8001098:	689b      	ldr	r3, [r3, #8]
 800109a:	4a45      	ldr	r2, [pc, #276]	@ (80011b0 <DMA2_Stream2_IRQHandler+0x144>)
 800109c:	f443 3380 	orr.w	r3, r3, #65536	@ 0x10000
 80010a0:	6093      	str	r3, [r2, #8]
 80010a2:	4b44      	ldr	r3, [pc, #272]	@ (80011b4 <DMA2_Stream2_IRQHandler+0x148>)
 80010a4:	681b      	ldr	r3, [r3, #0]
 80010a6:	f403 2380 	and.w	r3, r3, #262144	@ 0x40000
 80010aa:	2b00      	cmp	r3, #0
 80010ac:	d00e      	beq.n	80010cc <DMA2_Stream2_IRQHandler+0x60>
 80010ae:	4b42      	ldr	r3, [pc, #264]	@ (80011b8 <DMA2_Stream2_IRQHandler+0x14c>)
 80010b0:	681b      	ldr	r3, [r3, #0]
 80010b2:	6c1b      	ldr	r3, [r3, #64]	@ 0x40
 80010b4:	2b00      	cmp	r3, #0
 80010b6:	d009      	beq.n	80010cc <DMA2_Stream2_IRQHandler+0x60>
 80010b8:	4b3f      	ldr	r3, [pc, #252]	@ (80011b8 <DMA2_Stream2_IRQHandler+0x14c>)
 80010ba:	681b      	ldr	r3, [r3, #0]
 80010bc:	6c1b      	ldr	r3, [r3, #64]	@ 0x40
 80010be:	4798      	blx	r3
 80010c0:	4b3b      	ldr	r3, [pc, #236]	@ (80011b0 <DMA2_Stream2_IRQHandler+0x144>)
 80010c2:	689b      	ldr	r3, [r3, #8]
 80010c4:	4a3a      	ldr	r2, [pc, #232]	@ (80011b0 <DMA2_Stream2_IRQHandler+0x144>)
 80010c6:	f443 2380 	orr.w	r3, r3, #262144	@ 0x40000
 80010ca:	6093      	str	r3, [r2, #8]
 80010cc:	4b39      	ldr	r3, [pc, #228]	@ (80011b4 <DMA2_Stream2_IRQHandler+0x148>)
 80010ce:	681b      	ldr	r3, [r3, #0]
 80010d0:	f403 2300 	and.w	r3, r3, #524288	@ 0x80000
 80010d4:	2b00      	cmp	r3, #0
 80010d6:	d00e      	beq.n	80010f6 <DMA2_Stream2_IRQHandler+0x8a>
 80010d8:	4b37      	ldr	r3, [pc, #220]	@ (80011b8 <DMA2_Stream2_IRQHandler+0x14c>)
 80010da:	681b      	ldr	r3, [r3, #0]
 80010dc:	6c5b      	ldr	r3, [r3, #68]	@ 0x44
 80010de:	2b00      	cmp	r3, #0
 80010e0:	d009      	beq.n	80010f6 <DMA2_Stream2_IRQHandler+0x8a>
 80010e2:	4b35      	ldr	r3, [pc, #212]	@ (80011b8 <DMA2_Stream2_IRQHandler+0x14c>)
 80010e4:	681b      	ldr	r3, [r3, #0]
 80010e6:	6c5b      	ldr	r3, [r3, #68]	@ 0x44
 80010e8:	4798      	blx	r3
 80010ea:	4b31      	ldr	r3, [pc, #196]	@ (80011b0 <DMA2_Stream2_IRQHandler+0x144>)
 80010ec:	689b      	ldr	r3, [r3, #8]
 80010ee:	4a30      	ldr	r2, [pc, #192]	@ (80011b0 <DMA2_Stream2_IRQHandler+0x144>)
 80010f0:	f443 2300 	orr.w	r3, r3, #524288	@ 0x80000
 80010f4:	6093      	str	r3, [r2, #8]
 80010f6:	4b2f      	ldr	r3, [pc, #188]	@ (80011b4 <DMA2_Stream2_IRQHandler+0x148>)
 80010f8:	681b      	ldr	r3, [r3, #0]
 80010fa:	f403 1380 	and.w	r3, r3, #1048576	@ 0x100000
 80010fe:	2b00      	cmp	r3, #0
 8001100:	d026      	beq.n	8001150 <DMA2_Stream2_IRQHandler+0xe4>
 8001102:	4b2d      	ldr	r3, [pc, #180]	@ (80011b8 <DMA2_Stream2_IRQHandler+0x14c>)
 8001104:	681b      	ldr	r3, [r3, #0]
 8001106:	6c9b      	ldr	r3, [r3, #72]	@ 0x48
 8001108:	2b00      	cmp	r3, #0
 800110a:	d021      	beq.n	8001150 <DMA2_Stream2_IRQHandler+0xe4>
 800110c:	4b2a      	ldr	r3, [pc, #168]	@ (80011b8 <DMA2_Stream2_IRQHandler+0x14c>)
 800110e:	681b      	ldr	r3, [r3, #0]
 8001110:	6c9b      	ldr	r3, [r3, #72]	@ 0x48
 8001112:	4798      	blx	r3
 8001114:	4b26      	ldr	r3, [pc, #152]	@ (80011b0 <DMA2_Stream2_IRQHandler+0x144>)
 8001116:	689b      	ldr	r3, [r3, #8]
 8001118:	4a25      	ldr	r2, [pc, #148]	@ (80011b0 <DMA2_Stream2_IRQHandler+0x144>)
 800111a:	f443 1380 	orr.w	r3, r3, #1048576	@ 0x100000
 800111e:	6093      	str	r3, [r2, #8]
 8001120:	4b25      	ldr	r3, [pc, #148]	@ (80011b8 <DMA2_Stream2_IRQHandler+0x14c>)
 8001122:	681b      	ldr	r3, [r3, #0]
 8001124:	6b9b      	ldr	r3, [r3, #56]	@ 0x38
 8001126:	f44f 2280 	mov.w	r2, #262144	@ 0x40000
 800112a:	4293      	cmp	r3, r2
 800112c:	d110      	bne.n	8001150 <DMA2_Stream2_IRQHandler+0xe4>
 800112e:	4b22      	ldr	r3, [pc, #136]	@ (80011b8 <DMA2_Stream2_IRQHandler+0x14c>)
 8001130:	681b      	ldr	r3, [r3, #0]
 8001132:	685b      	ldr	r3, [r3, #4]
 8001134:	681b      	ldr	r3, [r3, #0]
 8001136:	f403 2380 	and.w	r3, r3, #262144	@ 0x40000
 800113a:	2b00      	cmp	r3, #0
 800113c:	d004      	beq.n	8001148 <DMA2_Stream2_IRQHandler+0xdc>
 800113e:	4b1e      	ldr	r3, [pc, #120]	@ (80011b8 <DMA2_Stream2_IRQHandler+0x14c>)
 8001140:	681b      	ldr	r3, [r3, #0]
 8001142:	6d1b      	ldr	r3, [r3, #80]	@ 0x50
 8001144:	4798      	blx	r3
 8001146:	e003      	b.n	8001150 <DMA2_Stream2_IRQHandler+0xe4>
 8001148:	4b1b      	ldr	r3, [pc, #108]	@ (80011b8 <DMA2_Stream2_IRQHandler+0x14c>)
 800114a:	681b      	ldr	r3, [r3, #0]
 800114c:	6d5b      	ldr	r3, [r3, #84]	@ 0x54
 800114e:	4798      	blx	r3
 8001150:	4b18      	ldr	r3, [pc, #96]	@ (80011b4 <DMA2_Stream2_IRQHandler+0x148>)
 8001152:	681b      	ldr	r3, [r3, #0]
 8001154:	f403 1300 	and.w	r3, r3, #2097152	@ 0x200000
 8001158:	2b00      	cmp	r3, #0
 800115a:	d026      	beq.n	80011aa <DMA2_Stream2_IRQHandler+0x13e>
 800115c:	4b16      	ldr	r3, [pc, #88]	@ (80011b8 <DMA2_Stream2_IRQHandler+0x14c>)
 800115e:	681b      	ldr	r3, [r3, #0]
 8001160:	6cdb      	ldr	r3, [r3, #76]	@ 0x4c
 8001162:	2b00      	cmp	r3, #0
 8001164:	d021      	beq.n	80011aa <DMA2_Stream2_IRQHandler+0x13e>
 8001166:	4b14      	ldr	r3, [pc, #80]	@ (80011b8 <DMA2_Stream2_IRQHandler+0x14c>)
 8001168:	681b      	ldr	r3, [r3, #0]
 800116a:	6cdb      	ldr	r3, [r3, #76]	@ 0x4c
 800116c:	4798      	blx	r3
 800116e:	4b10      	ldr	r3, [pc, #64]	@ (80011b0 <DMA2_Stream2_IRQHandler+0x144>)
 8001170:	689b      	ldr	r3, [r3, #8]
 8001172:	4a0f      	ldr	r2, [pc, #60]	@ (80011b0 <DMA2_Stream2_IRQHandler+0x144>)
 8001174:	f443 1300 	orr.w	r3, r3, #2097152	@ 0x200000
 8001178:	6093      	str	r3, [r2, #8]
 800117a:	4b0f      	ldr	r3, [pc, #60]	@ (80011b8 <DMA2_Stream2_IRQHandler+0x14c>)
 800117c:	681b      	ldr	r3, [r3, #0]
 800117e:	6b9b      	ldr	r3, [r3, #56]	@ 0x38
 8001180:	f44f 2280 	mov.w	r2, #262144	@ 0x40000
 8001184:	4293      	cmp	r3, r2
 8001186:	d110      	bne.n	80011aa <DMA2_Stream2_IRQHandler+0x13e>
 8001188:	4b0b      	ldr	r3, [pc, #44]	@ (80011b8 <DMA2_Stream2_IRQHandler+0x14c>)
 800118a:	681b      	ldr	r3, [r3, #0]
 800118c:	685b      	ldr	r3, [r3, #4]
 800118e:	681b      	ldr	r3, [r3, #0]
 8001190:	f403 2380 	and.w	r3, r3, #262144	@ 0x40000
 8001194:	2b00      	cmp	r3, #0
 8001196:	d004      	beq.n	80011a2 <DMA2_Stream2_IRQHandler+0x136>
 8001198:	4b07      	ldr	r3, [pc, #28]	@ (80011b8 <DMA2_Stream2_IRQHandler+0x14c>)
 800119a:	681b      	ldr	r3, [r3, #0]
 800119c:	6d1b      	ldr	r3, [r3, #80]	@ 0x50
 800119e:	4798      	blx	r3
 80011a0:	e003      	b.n	80011aa <DMA2_Stream2_IRQHandler+0x13e>
 80011a2:	4b05      	ldr	r3, [pc, #20]	@ (80011b8 <DMA2_Stream2_IRQHandler+0x14c>)
 80011a4:	681b      	ldr	r3, [r3, #0]
 80011a6:	6d5b      	ldr	r3, [r3, #84]	@ 0x54
 80011a8:	4798      	blx	r3
 80011aa:	bf00      	nop
 80011ac:	bd80      	pop	{r7, pc}
 80011ae:	bf00      	nop
 80011b0:	40026400 	.word	0x40026400
 80011b4:	20000060 	.word	0x20000060
 80011b8:	20000048 	.word	0x20000048

080011bc <DMA2_Stream3_IRQHandler>:
 80011bc:	b580      	push	{r7, lr}
 80011be:	af00      	add	r7, sp, #0
 80011c0:	4b60      	ldr	r3, [pc, #384]	@ (8001344 <DMA2_Stream3_IRQHandler+0x188>)
 80011c2:	681b      	ldr	r3, [r3, #0]
 80011c4:	4a60      	ldr	r2, [pc, #384]	@ (8001348 <DMA2_Stream3_IRQHandler+0x18c>)
 80011c6:	6013      	str	r3, [r2, #0]
 80011c8:	4b5f      	ldr	r3, [pc, #380]	@ (8001348 <DMA2_Stream3_IRQHandler+0x18c>)
 80011ca:	681b      	ldr	r3, [r3, #0]
 80011cc:	f403 0380 	and.w	r3, r3, #4194304	@ 0x400000
 80011d0:	2b00      	cmp	r3, #0
 80011d2:	d015      	beq.n	8001200 <DMA2_Stream3_IRQHandler+0x44>
 80011d4:	4b5d      	ldr	r3, [pc, #372]	@ (800134c <DMA2_Stream3_IRQHandler+0x190>)
 80011d6:	681b      	ldr	r3, [r3, #0]
 80011d8:	69db      	ldr	r3, [r3, #28]
 80011da:	2280      	movs	r2, #128	@ 0x80
 80011dc:	4013      	ands	r3, r2
 80011de:	2b00      	cmp	r3, #0
 80011e0:	d00e      	beq.n	8001200 <DMA2_Stream3_IRQHandler+0x44>
 80011e2:	4b5a      	ldr	r3, [pc, #360]	@ (800134c <DMA2_Stream3_IRQHandler+0x190>)
 80011e4:	681b      	ldr	r3, [r3, #0]
 80011e6:	6bdb      	ldr	r3, [r3, #60]	@ 0x3c
 80011e8:	2b00      	cmp	r3, #0
 80011ea:	d009      	beq.n	8001200 <DMA2_Stream3_IRQHandler+0x44>
 80011ec:	4b57      	ldr	r3, [pc, #348]	@ (800134c <DMA2_Stream3_IRQHandler+0x190>)
 80011ee:	681b      	ldr	r3, [r3, #0]
 80011f0:	6bdb      	ldr	r3, [r3, #60]	@ 0x3c
 80011f2:	4798      	blx	r3
 80011f4:	4b53      	ldr	r3, [pc, #332]	@ (8001344 <DMA2_Stream3_IRQHandler+0x188>)
 80011f6:	689b      	ldr	r3, [r3, #8]
 80011f8:	4a52      	ldr	r2, [pc, #328]	@ (8001344 <DMA2_Stream3_IRQHandler+0x188>)
 80011fa:	f443 0380 	orr.w	r3, r3, #4194304	@ 0x400000
 80011fe:	6093      	str	r3, [r2, #8]
 8001200:	4b51      	ldr	r3, [pc, #324]	@ (8001348 <DMA2_Stream3_IRQHandler+0x18c>)
 8001202:	681b      	ldr	r3, [r3, #0]
 8001204:	f003 7380 	and.w	r3, r3, #16777216	@ 0x1000000
 8001208:	2b00      	cmp	r3, #0
 800120a:	d015      	beq.n	8001238 <DMA2_Stream3_IRQHandler+0x7c>
 800120c:	4b4f      	ldr	r3, [pc, #316]	@ (800134c <DMA2_Stream3_IRQHandler+0x190>)
 800120e:	681b      	ldr	r3, [r3, #0]
 8001210:	69db      	ldr	r3, [r3, #28]
 8001212:	2202      	movs	r2, #2
 8001214:	4013      	ands	r3, r2
 8001216:	2b00      	cmp	r3, #0
 8001218:	d00e      	beq.n	8001238 <DMA2_Stream3_IRQHandler+0x7c>
 800121a:	4b4c      	ldr	r3, [pc, #304]	@ (800134c <DMA2_Stream3_IRQHandler+0x190>)
 800121c:	681b      	ldr	r3, [r3, #0]
 800121e:	6c1b      	ldr	r3, [r3, #64]	@ 0x40
 8001220:	2b00      	cmp	r3, #0
 8001222:	d009      	beq.n	8001238 <DMA2_Stream3_IRQHandler+0x7c>
 8001224:	4b49      	ldr	r3, [pc, #292]	@ (800134c <DMA2_Stream3_IRQHandler+0x190>)
 8001226:	681b      	ldr	r3, [r3, #0]
 8001228:	6c1b      	ldr	r3, [r3, #64]	@ 0x40
 800122a:	4798      	blx	r3
 800122c:	4b45      	ldr	r3, [pc, #276]	@ (8001344 <DMA2_Stream3_IRQHandler+0x188>)
 800122e:	689b      	ldr	r3, [r3, #8]
 8001230:	4a44      	ldr	r2, [pc, #272]	@ (8001344 <DMA2_Stream3_IRQHandler+0x188>)
 8001232:	f043 7380 	orr.w	r3, r3, #16777216	@ 0x1000000
 8001236:	6093      	str	r3, [r2, #8]
 8001238:	4b43      	ldr	r3, [pc, #268]	@ (8001348 <DMA2_Stream3_IRQHandler+0x18c>)
 800123a:	681b      	ldr	r3, [r3, #0]
 800123c:	f003 7300 	and.w	r3, r3, #33554432	@ 0x2000000
 8001240:	2b00      	cmp	r3, #0
 8001242:	d015      	beq.n	8001270 <DMA2_Stream3_IRQHandler+0xb4>
 8001244:	4b41      	ldr	r3, [pc, #260]	@ (800134c <DMA2_Stream3_IRQHandler+0x190>)
 8001246:	681b      	ldr	r3, [r3, #0]
 8001248:	69db      	ldr	r3, [r3, #28]
 800124a:	2204      	movs	r2, #4
 800124c:	4013      	ands	r3, r2
 800124e:	2b00      	cmp	r3, #0
 8001250:	d00e      	beq.n	8001270 <DMA2_Stream3_IRQHandler+0xb4>
 8001252:	4b3e      	ldr	r3, [pc, #248]	@ (800134c <DMA2_Stream3_IRQHandler+0x190>)
 8001254:	681b      	ldr	r3, [r3, #0]
 8001256:	6c5b      	ldr	r3, [r3, #68]	@ 0x44
 8001258:	2b00      	cmp	r3, #0
 800125a:	d009      	beq.n	8001270 <DMA2_Stream3_IRQHandler+0xb4>
 800125c:	4b3b      	ldr	r3, [pc, #236]	@ (800134c <DMA2_Stream3_IRQHandler+0x190>)
 800125e:	681b      	ldr	r3, [r3, #0]
 8001260:	6c5b      	ldr	r3, [r3, #68]	@ 0x44
 8001262:	4798      	blx	r3
 8001264:	4b37      	ldr	r3, [pc, #220]	@ (8001344 <DMA2_Stream3_IRQHandler+0x188>)
 8001266:	689b      	ldr	r3, [r3, #8]
 8001268:	4a36      	ldr	r2, [pc, #216]	@ (8001344 <DMA2_Stream3_IRQHandler+0x188>)
 800126a:	f043 7300 	orr.w	r3, r3, #33554432	@ 0x2000000
 800126e:	6093      	str	r3, [r2, #8]
 8001270:	4b35      	ldr	r3, [pc, #212]	@ (8001348 <DMA2_Stream3_IRQHandler+0x18c>)
 8001272:	681b      	ldr	r3, [r3, #0]
 8001274:	f003 6380 	and.w	r3, r3, #67108864	@ 0x4000000
 8001278:	2b00      	cmp	r3, #0
 800127a:	d02d      	beq.n	80012d8 <DMA2_Stream3_IRQHandler+0x11c>
 800127c:	4b33      	ldr	r3, [pc, #204]	@ (800134c <DMA2_Stream3_IRQHandler+0x190>)
 800127e:	681b      	ldr	r3, [r3, #0]
 8001280:	69db      	ldr	r3, [r3, #28]
 8001282:	2208      	movs	r2, #8
 8001284:	4013      	ands	r3, r2
 8001286:	2b00      	cmp	r3, #0
 8001288:	d026      	beq.n	80012d8 <DMA2_Stream3_IRQHandler+0x11c>
 800128a:	4b30      	ldr	r3, [pc, #192]	@ (800134c <DMA2_Stream3_IRQHandler+0x190>)
 800128c:	681b      	ldr	r3, [r3, #0]
 800128e:	6c9b      	ldr	r3, [r3, #72]	@ 0x48
 8001290:	2b00      	cmp	r3, #0
 8001292:	d021      	beq.n	80012d8 <DMA2_Stream3_IRQHandler+0x11c>
 8001294:	4b2d      	ldr	r3, [pc, #180]	@ (800134c <DMA2_Stream3_IRQHandler+0x190>)
 8001296:	681b      	ldr	r3, [r3, #0]
 8001298:	6c9b      	ldr	r3, [r3, #72]	@ 0x48
 800129a:	4798      	blx	r3
 800129c:	4b29      	ldr	r3, [pc, #164]	@ (8001344 <DMA2_Stream3_IRQHandler+0x188>)
 800129e:	689b      	ldr	r3, [r3, #8]
 80012a0:	4a28      	ldr	r2, [pc, #160]	@ (8001344 <DMA2_Stream3_IRQHandler+0x188>)
 80012a2:	f043 6380 	orr.w	r3, r3, #67108864	@ 0x4000000
 80012a6:	6093      	str	r3, [r2, #8]
 80012a8:	4b28      	ldr	r3, [pc, #160]	@ (800134c <DMA2_Stream3_IRQHandler+0x190>)
 80012aa:	681b      	ldr	r3, [r3, #0]
 80012ac:	6b9b      	ldr	r3, [r3, #56]	@ 0x38
 80012ae:	f44f 2280 	mov.w	r2, #262144	@ 0x40000
 80012b2:	4293      	cmp	r3, r2
 80012b4:	d110      	bne.n	80012d8 <DMA2_Stream3_IRQHandler+0x11c>
 80012b6:	4b25      	ldr	r3, [pc, #148]	@ (800134c <DMA2_Stream3_IRQHandler+0x190>)
 80012b8:	681b      	ldr	r3, [r3, #0]
 80012ba:	685b      	ldr	r3, [r3, #4]
 80012bc:	681b      	ldr	r3, [r3, #0]
 80012be:	f403 2380 	and.w	r3, r3, #262144	@ 0x40000
 80012c2:	2b00      	cmp	r3, #0
 80012c4:	d004      	beq.n	80012d0 <DMA2_Stream3_IRQHandler+0x114>
 80012c6:	4b21      	ldr	r3, [pc, #132]	@ (800134c <DMA2_Stream3_IRQHandler+0x190>)
 80012c8:	681b      	ldr	r3, [r3, #0]
 80012ca:	6d1b      	ldr	r3, [r3, #80]	@ 0x50
 80012cc:	4798      	blx	r3
 80012ce:	e003      	b.n	80012d8 <DMA2_Stream3_IRQHandler+0x11c>
 80012d0:	4b1e      	ldr	r3, [pc, #120]	@ (800134c <DMA2_Stream3_IRQHandler+0x190>)
 80012d2:	681b      	ldr	r3, [r3, #0]
 80012d4:	6d5b      	ldr	r3, [r3, #84]	@ 0x54
 80012d6:	4798      	blx	r3
 80012d8:	4b1b      	ldr	r3, [pc, #108]	@ (8001348 <DMA2_Stream3_IRQHandler+0x18c>)
 80012da:	681b      	ldr	r3, [r3, #0]
 80012dc:	f003 6300 	and.w	r3, r3, #134217728	@ 0x8000000
 80012e0:	2b00      	cmp	r3, #0
 80012e2:	d02d      	beq.n	8001340 <DMA2_Stream3_IRQHandler+0x184>
 80012e4:	4b19      	ldr	r3, [pc, #100]	@ (800134c <DMA2_Stream3_IRQHandler+0x190>)
 80012e6:	681b      	ldr	r3, [r3, #0]
 80012e8:	69db      	ldr	r3, [r3, #28]
 80012ea:	2210      	movs	r2, #16
 80012ec:	4013      	ands	r3, r2
 80012ee:	2b00      	cmp	r3, #0
 80012f0:	d026      	beq.n	8001340 <DMA2_Stream3_IRQHandler+0x184>
 80012f2:	4b16      	ldr	r3, [pc, #88]	@ (800134c <DMA2_Stream3_IRQHandler+0x190>)
 80012f4:	681b      	ldr	r3, [r3, #0]
 80012f6:	6cdb      	ldr	r3, [r3, #76]	@ 0x4c
 80012f8:	2b00      	cmp	r3, #0
 80012fa:	d021      	beq.n	8001340 <DMA2_Stream3_IRQHandler+0x184>
 80012fc:	4b13      	ldr	r3, [pc, #76]	@ (800134c <DMA2_Stream3_IRQHandler+0x190>)
 80012fe:	681b      	ldr	r3, [r3, #0]
 8001300:	6cdb      	ldr	r3, [r3, #76]	@ 0x4c
 8001302:	4798      	blx	r3
 8001304:	4b0f      	ldr	r3, [pc, #60]	@ (8001344 <DMA2_Stream3_IRQHandler+0x188>)
 8001306:	689b      	ldr	r3, [r3, #8]
 8001308:	4a0e      	ldr	r2, [pc, #56]	@ (8001344 <DMA2_Stream3_IRQHandler+0x188>)
 800130a:	f043 6300 	orr.w	r3, r3, #134217728	@ 0x8000000
 800130e:	6093      	str	r3, [r2, #8]
 8001310:	4b0e      	ldr	r3, [pc, #56]	@ (800134c <DMA2_Stream3_IRQHandler+0x190>)
 8001312:	681b      	ldr	r3, [r3, #0]
 8001314:	6b9b      	ldr	r3, [r3, #56]	@ 0x38
 8001316:	f44f 2280 	mov.w	r2, #262144	@ 0x40000
 800131a:	4293      	cmp	r3, r2
 800131c:	d110      	bne.n	8001340 <DMA2_Stream3_IRQHandler+0x184>
 800131e:	4b0b      	ldr	r3, [pc, #44]	@ (800134c <DMA2_Stream3_IRQHandler+0x190>)
 8001320:	681b      	ldr	r3, [r3, #0]
 8001322:	685b      	ldr	r3, [r3, #4]
 8001324:	681b      	ldr	r3, [r3, #0]
 8001326:	f403 2380 	and.w	r3, r3, #262144	@ 0x40000
 800132a:	2b00      	cmp	r3, #0
 800132c:	d004      	beq.n	8001338 <DMA2_Stream3_IRQHandler+0x17c>
 800132e:	4b07      	ldr	r3, [pc, #28]	@ (800134c <DMA2_Stream3_IRQHandler+0x190>)
 8001330:	681b      	ldr	r3, [r3, #0]
 8001332:	6d1b      	ldr	r3, [r3, #80]	@ 0x50
 8001334:	4798      	blx	r3
 8001336:	e003      	b.n	8001340 <DMA2_Stream3_IRQHandler+0x184>
 8001338:	4b04      	ldr	r3, [pc, #16]	@ (800134c <DMA2_Stream3_IRQHandler+0x190>)
 800133a:	681b      	ldr	r3, [r3, #0]
 800133c:	6d5b      	ldr	r3, [r3, #84]	@ 0x54
 800133e:	4798      	blx	r3
 8001340:	bf00      	nop
 8001342:	bd80      	pop	{r7, pc}
 8001344:	40026400 	.word	0x40026400
 8001348:	20000060 	.word	0x20000060
 800134c:	2000004c 	.word	0x2000004c

08001350 <DMA2_Stream4_IRQHandler>:
 8001350:	b580      	push	{r7, lr}
 8001352:	af00      	add	r7, sp, #0
 8001354:	4b4f      	ldr	r3, [pc, #316]	@ (8001494 <DMA2_Stream4_IRQHandler+0x144>)
 8001356:	685b      	ldr	r3, [r3, #4]
 8001358:	4a4f      	ldr	r2, [pc, #316]	@ (8001498 <DMA2_Stream4_IRQHandler+0x148>)
 800135a:	6013      	str	r3, [r2, #0]
 800135c:	4b4e      	ldr	r3, [pc, #312]	@ (8001498 <DMA2_Stream4_IRQHandler+0x148>)
 800135e:	681b      	ldr	r3, [r3, #0]
 8001360:	f003 0301 	and.w	r3, r3, #1
 8001364:	2b00      	cmp	r3, #0
 8001366:	d00e      	beq.n	8001386 <DMA2_Stream4_IRQHandler+0x36>
 8001368:	4b4c      	ldr	r3, [pc, #304]	@ (800149c <DMA2_Stream4_IRQHandler+0x14c>)
 800136a:	681b      	ldr	r3, [r3, #0]
 800136c:	6bdb      	ldr	r3, [r3, #60]	@ 0x3c
 800136e:	2b00      	cmp	r3, #0
 8001370:	d009      	beq.n	8001386 <DMA2_Stream4_IRQHandler+0x36>
 8001372:	4b4a      	ldr	r3, [pc, #296]	@ (800149c <DMA2_Stream4_IRQHandler+0x14c>)
 8001374:	681b      	ldr	r3, [r3, #0]
 8001376:	6bdb      	ldr	r3, [r3, #60]	@ 0x3c
 8001378:	4798      	blx	r3
 800137a:	4b46      	ldr	r3, [pc, #280]	@ (8001494 <DMA2_Stream4_IRQHandler+0x144>)
 800137c:	689b      	ldr	r3, [r3, #8]
 800137e:	4a45      	ldr	r2, [pc, #276]	@ (8001494 <DMA2_Stream4_IRQHandler+0x144>)
 8001380:	f043 0340 	orr.w	r3, r3, #64	@ 0x40
 8001384:	6093      	str	r3, [r2, #8]
 8001386:	4b44      	ldr	r3, [pc, #272]	@ (8001498 <DMA2_Stream4_IRQHandler+0x148>)
 8001388:	681b      	ldr	r3, [r3, #0]
 800138a:	f003 0304 	and.w	r3, r3, #4
 800138e:	2b00      	cmp	r3, #0
 8001390:	d00e      	beq.n	80013b0 <DMA2_Stream4_IRQHandler+0x60>
 8001392:	4b42      	ldr	r3, [pc, #264]	@ (800149c <DMA2_Stream4_IRQHandler+0x14c>)
 8001394:	681b      	ldr	r3, [r3, #0]
 8001396:	6c1b      	ldr	r3, [r3, #64]	@ 0x40
 8001398:	2b00      	cmp	r3, #0
 800139a:	d009      	beq.n	80013b0 <DMA2_Stream4_IRQHandler+0x60>
 800139c:	4b3f      	ldr	r3, [pc, #252]	@ (800149c <DMA2_Stream4_IRQHandler+0x14c>)
 800139e:	681b      	ldr	r3, [r3, #0]
 80013a0:	6c1b      	ldr	r3, [r3, #64]	@ 0x40
 80013a2:	4798      	blx	r3
 80013a4:	4b3b      	ldr	r3, [pc, #236]	@ (8001494 <DMA2_Stream4_IRQHandler+0x144>)
 80013a6:	68db      	ldr	r3, [r3, #12]
 80013a8:	4a3a      	ldr	r2, [pc, #232]	@ (8001494 <DMA2_Stream4_IRQHandler+0x144>)
 80013aa:	f043 0304 	orr.w	r3, r3, #4
 80013ae:	60d3      	str	r3, [r2, #12]
 80013b0:	4b39      	ldr	r3, [pc, #228]	@ (8001498 <DMA2_Stream4_IRQHandler+0x148>)
 80013b2:	681b      	ldr	r3, [r3, #0]
 80013b4:	f003 0308 	and.w	r3, r3, #8
 80013b8:	2b00      	cmp	r3, #0
 80013ba:	d00e      	beq.n	80013da <DMA2_Stream4_IRQHandler+0x8a>
 80013bc:	4b37      	ldr	r3, [pc, #220]	@ (800149c <DMA2_Stream4_IRQHandler+0x14c>)
 80013be:	681b      	ldr	r3, [r3, #0]
 80013c0:	6c5b      	ldr	r3, [r3, #68]	@ 0x44
 80013c2:	2b00      	cmp	r3, #0
 80013c4:	d009      	beq.n	80013da <DMA2_Stream4_IRQHandler+0x8a>
 80013c6:	4b35      	ldr	r3, [pc, #212]	@ (800149c <DMA2_Stream4_IRQHandler+0x14c>)
 80013c8:	681b      	ldr	r3, [r3, #0]
 80013ca:	6c5b      	ldr	r3, [r3, #68]	@ 0x44
 80013cc:	4798      	blx	r3
 80013ce:	4b31      	ldr	r3, [pc, #196]	@ (8001494 <DMA2_Stream4_IRQHandler+0x144>)
 80013d0:	68db      	ldr	r3, [r3, #12]
 80013d2:	4a30      	ldr	r2, [pc, #192]	@ (8001494 <DMA2_Stream4_IRQHandler+0x144>)
 80013d4:	f043 0308 	orr.w	r3, r3, #8
 80013d8:	60d3      	str	r3, [r2, #12]
 80013da:	4b2f      	ldr	r3, [pc, #188]	@ (8001498 <DMA2_Stream4_IRQHandler+0x148>)
 80013dc:	681b      	ldr	r3, [r3, #0]
 80013de:	f003 0310 	and.w	r3, r3, #16
 80013e2:	2b00      	cmp	r3, #0
 80013e4:	d026      	beq.n	8001434 <DMA2_Stream4_IRQHandler+0xe4>
 80013e6:	4b2d      	ldr	r3, [pc, #180]	@ (800149c <DMA2_Stream4_IRQHandler+0x14c>)
 80013e8:	681b      	ldr	r3, [r3, #0]
 80013ea:	6c9b      	ldr	r3, [r3, #72]	@ 0x48
 80013ec:	2b00      	cmp	r3, #0
 80013ee:	d021      	beq.n	8001434 <DMA2_Stream4_IRQHandler+0xe4>
 80013f0:	4b2a      	ldr	r3, [pc, #168]	@ (800149c <DMA2_Stream4_IRQHandler+0x14c>)
 80013f2:	681b      	ldr	r3, [r3, #0]
 80013f4:	6c9b      	ldr	r3, [r3, #72]	@ 0x48
 80013f6:	4798      	blx	r3
 80013f8:	4b26      	ldr	r3, [pc, #152]	@ (8001494 <DMA2_Stream4_IRQHandler+0x144>)
 80013fa:	68db      	ldr	r3, [r3, #12]
 80013fc:	4a25      	ldr	r2, [pc, #148]	@ (8001494 <DMA2_Stream4_IRQHandler+0x144>)
 80013fe:	f043 0310 	orr.w	r3, r3, #16
 8001402:	60d3      	str	r3, [r2, #12]
 8001404:	4b25      	ldr	r3, [pc, #148]	@ (800149c <DMA2_Stream4_IRQHandler+0x14c>)
 8001406:	681b      	ldr	r3, [r3, #0]
 8001408:	6b9b      	ldr	r3, [r3, #56]	@ 0x38
 800140a:	f44f 2280 	mov.w	r2, #262144	@ 0x40000
 800140e:	4293      	cmp	r3, r2
 8001410:	d110      	bne.n	8001434 <DMA2_Stream4_IRQHandler+0xe4>
 8001412:	4b22      	ldr	r3, [pc, #136]	@ (800149c <DMA2_Stream4_IRQHandler+0x14c>)
 8001414:	681b      	ldr	r3, [r3, #0]
 8001416:	685b      	ldr	r3, [r3, #4]
 8001418:	681b      	ldr	r3, [r3, #0]
 800141a:	f403 2380 	and.w	r3, r3, #262144	@ 0x40000
 800141e:	2b00      	cmp	r3, #0
 8001420:	d004      	beq.n	800142c <DMA2_Stream4_IRQHandler+0xdc>
 8001422:	4b1e      	ldr	r3, [pc, #120]	@ (800149c <DMA2_Stream4_IRQHandler+0x14c>)
 8001424:	681b      	ldr	r3, [r3, #0]
 8001426:	6d1b      	ldr	r3, [r3, #80]	@ 0x50
 8001428:	4798      	blx	r3
 800142a:	e003      	b.n	8001434 <DMA2_Stream4_IRQHandler+0xe4>
 800142c:	4b1b      	ldr	r3, [pc, #108]	@ (800149c <DMA2_Stream4_IRQHandler+0x14c>)
 800142e:	681b      	ldr	r3, [r3, #0]
 8001430:	6d5b      	ldr	r3, [r3, #84]	@ 0x54
 8001432:	4798      	blx	r3
 8001434:	4b18      	ldr	r3, [pc, #96]	@ (8001498 <DMA2_Stream4_IRQHandler+0x148>)
 8001436:	681b      	ldr	r3, [r3, #0]
 8001438:	f003 0320 	and.w	r3, r3, #32
 800143c:	2b00      	cmp	r3, #0
 800143e:	d026      	beq.n	800148e <DMA2_Stream4_IRQHandler+0x13e>
 8001440:	4b16      	ldr	r3, [pc, #88]	@ (800149c <DMA2_Stream4_IRQHandler+0x14c>)
 8001442:	681b      	ldr	r3, [r3, #0]
 8001444:	6cdb      	ldr	r3, [r3, #76]	@ 0x4c
 8001446:	2b00      	cmp	r3, #0
 8001448:	d021      	beq.n	800148e <DMA2_Stream4_IRQHandler+0x13e>
 800144a:	4b14      	ldr	r3, [pc, #80]	@ (800149c <DMA2_Stream4_IRQHandler+0x14c>)
 800144c:	681b      	ldr	r3, [r3, #0]
 800144e:	6cdb      	ldr	r3, [r3, #76]	@ 0x4c
 8001450:	4798      	blx	r3
 8001452:	4b10      	ldr	r3, [pc, #64]	@ (8001494 <DMA2_Stream4_IRQHandler+0x144>)
 8001454:	68db      	ldr	r3, [r3, #12]
 8001456:	4a0f      	ldr	r2, [pc, #60]	@ (8001494 <DMA2_Stream4_IRQHandler+0x144>)
 8001458:	f043 0320 	orr.w	r3, r3, #32
 800145c:	60d3      	str	r3, [r2, #12]
 800145e:	4b0f      	ldr	r3, [pc, #60]	@ (800149c <DMA2_Stream4_IRQHandler+0x14c>)
 8001460:	681b      	ldr	r3, [r3, #0]
 8001462:	6b9b      	ldr	r3, [r3, #56]	@ 0x38
 8001464:	f44f 2280 	mov.w	r2, #262144	@ 0x40000
 8001468:	4293      	cmp	r3, r2
 800146a:	d110      	bne.n	800148e <DMA2_Stream4_IRQHandler+0x13e>
 800146c:	4b0b      	ldr	r3, [pc, #44]	@ (800149c <DMA2_Stream4_IRQHandler+0x14c>)
 800146e:	681b      	ldr	r3, [r3, #0]
 8001470:	685b      	ldr	r3, [r3, #4]
 8001472:	681b      	ldr	r3, [r3, #0]
 8001474:	f403 2380 	and.w	r3, r3, #262144	@ 0x40000
 8001478:	2b00      	cmp	r3, #0
 800147a:	d004      	beq.n	8001486 <DMA2_Stream4_IRQHandler+0x136>
 800147c:	4b07      	ldr	r3, [pc, #28]	@ (800149c <DMA2_Stream4_IRQHandler+0x14c>)
 800147e:	681b      	ldr	r3, [r3, #0]
 8001480:	6d1b      	ldr	r3, [r3, #80]	@ 0x50
 8001482:	4798      	blx	r3
 8001484:	e003      	b.n	800148e <DMA2_Stream4_IRQHandler+0x13e>
 8001486:	4b05      	ldr	r3, [pc, #20]	@ (800149c <DMA2_Stream4_IRQHandler+0x14c>)
 8001488:	681b      	ldr	r3, [r3, #0]
 800148a:	6d5b      	ldr	r3, [r3, #84]	@ 0x54
 800148c:	4798      	blx	r3
 800148e:	bf00      	nop
 8001490:	bd80      	pop	{r7, pc}
 8001492:	bf00      	nop
 8001494:	40026400 	.word	0x40026400
 8001498:	20000064 	.word	0x20000064
 800149c:	20000050 	.word	0x20000050

080014a0 <DMA2_Stream5_IRQHandler>:
 80014a0:	b580      	push	{r7, lr}
 80014a2:	af00      	add	r7, sp, #0
 80014a4:	4b4f      	ldr	r3, [pc, #316]	@ (80015e4 <DMA2_Stream5_IRQHandler+0x144>)
 80014a6:	685b      	ldr	r3, [r3, #4]
 80014a8:	4a4f      	ldr	r2, [pc, #316]	@ (80015e8 <DMA2_Stream5_IRQHandler+0x148>)
 80014aa:	6013      	str	r3, [r2, #0]
 80014ac:	4b4e      	ldr	r3, [pc, #312]	@ (80015e8 <DMA2_Stream5_IRQHandler+0x148>)
 80014ae:	681b      	ldr	r3, [r3, #0]
 80014b0:	f003 0340 	and.w	r3, r3, #64	@ 0x40
 80014b4:	2b00      	cmp	r3, #0
 80014b6:	d00e      	beq.n	80014d6 <DMA2_Stream5_IRQHandler+0x36>
 80014b8:	4b4c      	ldr	r3, [pc, #304]	@ (80015ec <DMA2_Stream5_IRQHandler+0x14c>)
 80014ba:	681b      	ldr	r3, [r3, #0]
 80014bc:	6bdb      	ldr	r3, [r3, #60]	@ 0x3c
 80014be:	2b00      	cmp	r3, #0
 80014c0:	d009      	beq.n	80014d6 <DMA2_Stream5_IRQHandler+0x36>
 80014c2:	4b4a      	ldr	r3, [pc, #296]	@ (80015ec <DMA2_Stream5_IRQHandler+0x14c>)
 80014c4:	681b      	ldr	r3, [r3, #0]
 80014c6:	6bdb      	ldr	r3, [r3, #60]	@ 0x3c
 80014c8:	4798      	blx	r3
 80014ca:	4b46      	ldr	r3, [pc, #280]	@ (80015e4 <DMA2_Stream5_IRQHandler+0x144>)
 80014cc:	68db      	ldr	r3, [r3, #12]
 80014ce:	4a45      	ldr	r2, [pc, #276]	@ (80015e4 <DMA2_Stream5_IRQHandler+0x144>)
 80014d0:	f043 0340 	orr.w	r3, r3, #64	@ 0x40
 80014d4:	60d3      	str	r3, [r2, #12]
 80014d6:	4b44      	ldr	r3, [pc, #272]	@ (80015e8 <DMA2_Stream5_IRQHandler+0x148>)
 80014d8:	681b      	ldr	r3, [r3, #0]
 80014da:	f403 7380 	and.w	r3, r3, #256	@ 0x100
 80014de:	2b00      	cmp	r3, #0
 80014e0:	d00e      	beq.n	8001500 <DMA2_Stream5_IRQHandler+0x60>
 80014e2:	4b42      	ldr	r3, [pc, #264]	@ (80015ec <DMA2_Stream5_IRQHandler+0x14c>)
 80014e4:	681b      	ldr	r3, [r3, #0]
 80014e6:	6c1b      	ldr	r3, [r3, #64]	@ 0x40
 80014e8:	2b00      	cmp	r3, #0
 80014ea:	d009      	beq.n	8001500 <DMA2_Stream5_IRQHandler+0x60>
 80014ec:	4b3f      	ldr	r3, [pc, #252]	@ (80015ec <DMA2_Stream5_IRQHandler+0x14c>)
 80014ee:	681b      	ldr	r3, [r3, #0]
 80014f0:	6c1b      	ldr	r3, [r3, #64]	@ 0x40
 80014f2:	4798      	blx	r3
 80014f4:	4b3b      	ldr	r3, [pc, #236]	@ (80015e4 <DMA2_Stream5_IRQHandler+0x144>)
 80014f6:	68db      	ldr	r3, [r3, #12]
 80014f8:	4a3a      	ldr	r2, [pc, #232]	@ (80015e4 <DMA2_Stream5_IRQHandler+0x144>)
 80014fa:	f443 7380 	orr.w	r3, r3, #256	@ 0x100
 80014fe:	60d3      	str	r3, [r2, #12]
 8001500:	4b39      	ldr	r3, [pc, #228]	@ (80015e8 <DMA2_Stream5_IRQHandler+0x148>)
 8001502:	681b      	ldr	r3, [r3, #0]
 8001504:	f403 7300 	and.w	r3, r3, #512	@ 0x200
 8001508:	2b00      	cmp	r3, #0
 800150a:	d00e      	beq.n	800152a <DMA2_Stream5_IRQHandler+0x8a>
 800150c:	4b37      	ldr	r3, [pc, #220]	@ (80015ec <DMA2_Stream5_IRQHandler+0x14c>)
 800150e:	681b      	ldr	r3, [r3, #0]
 8001510:	6c5b      	ldr	r3, [r3, #68]	@ 0x44
 8001512:	2b00      	cmp	r3, #0
 8001514:	d009      	beq.n	800152a <DMA2_Stream5_IRQHandler+0x8a>
 8001516:	4b35      	ldr	r3, [pc, #212]	@ (80015ec <DMA2_Stream5_IRQHandler+0x14c>)
 8001518:	681b      	ldr	r3, [r3, #0]
 800151a:	6c5b      	ldr	r3, [r3, #68]	@ 0x44
 800151c:	4798      	blx	r3
 800151e:	4b31      	ldr	r3, [pc, #196]	@ (80015e4 <DMA2_Stream5_IRQHandler+0x144>)
 8001520:	68db      	ldr	r3, [r3, #12]
 8001522:	4a30      	ldr	r2, [pc, #192]	@ (80015e4 <DMA2_Stream5_IRQHandler+0x144>)
 8001524:	f443 7300 	orr.w	r3, r3, #512	@ 0x200
 8001528:	60d3      	str	r3, [r2, #12]
 800152a:	4b2f      	ldr	r3, [pc, #188]	@ (80015e8 <DMA2_Stream5_IRQHandler+0x148>)
 800152c:	681b      	ldr	r3, [r3, #0]
 800152e:	f403 6380 	and.w	r3, r3, #1024	@ 0x400
 8001532:	2b00      	cmp	r3, #0
 8001534:	d026      	beq.n	8001584 <DMA2_Stream5_IRQHandler+0xe4>
 8001536:	4b2d      	ldr	r3, [pc, #180]	@ (80015ec <DMA2_Stream5_IRQHandler+0x14c>)
 8001538:	681b      	ldr	r3, [r3, #0]
 800153a:	6c9b      	ldr	r3, [r3, #72]	@ 0x48
 800153c:	2b00      	cmp	r3, #0
 800153e:	d021      	beq.n	8001584 <DMA2_Stream5_IRQHandler+0xe4>
 8001540:	4b2a      	ldr	r3, [pc, #168]	@ (80015ec <DMA2_Stream5_IRQHandler+0x14c>)
 8001542:	681b      	ldr	r3, [r3, #0]
 8001544:	6c9b      	ldr	r3, [r3, #72]	@ 0x48
 8001546:	4798      	blx	r3
 8001548:	4b26      	ldr	r3, [pc, #152]	@ (80015e4 <DMA2_Stream5_IRQHandler+0x144>)
 800154a:	68db      	ldr	r3, [r3, #12]
 800154c:	4a25      	ldr	r2, [pc, #148]	@ (80015e4 <DMA2_Stream5_IRQHandler+0x144>)
 800154e:	f443 6380 	orr.w	r3, r3, #1024	@ 0x400
 8001552:	60d3      	str	r3, [r2, #12]
 8001554:	4b25      	ldr	r3, [pc, #148]	@ (80015ec <DMA2_Stream5_IRQHandler+0x14c>)
 8001556:	681b      	ldr	r3, [r3, #0]
 8001558:	6b9b      	ldr	r3, [r3, #56]	@ 0x38
 800155a:	f44f 2280 	mov.w	r2, #262144	@ 0x40000
 800155e:	4293      	cmp	r3, r2
 8001560:	d110      	bne.n	8001584 <DMA2_Stream5_IRQHandler+0xe4>
 8001562:	4b22      	ldr	r3, [pc, #136]	@ (80015ec <DMA2_Stream5_IRQHandler+0x14c>)
 8001564:	681b      	ldr	r3, [r3, #0]
 8001566:	685b      	ldr	r3, [r3, #4]
 8001568:	681b      	ldr	r3, [r3, #0]
 800156a:	f403 2380 	and.w	r3, r3, #262144	@ 0x40000
 800156e:	2b00      	cmp	r3, #0
 8001570:	d004      	beq.n	800157c <DMA2_Stream5_IRQHandler+0xdc>
 8001572:	4b1e      	ldr	r3, [pc, #120]	@ (80015ec <DMA2_Stream5_IRQHandler+0x14c>)
 8001574:	681b      	ldr	r3, [r3, #0]
 8001576:	6d1b      	ldr	r3, [r3, #80]	@ 0x50
 8001578:	4798      	blx	r3
 800157a:	e003      	b.n	8001584 <DMA2_Stream5_IRQHandler+0xe4>
 800157c:	4b1b      	ldr	r3, [pc, #108]	@ (80015ec <DMA2_Stream5_IRQHandler+0x14c>)
 800157e:	681b      	ldr	r3, [r3, #0]
 8001580:	6d5b      	ldr	r3, [r3, #84]	@ 0x54
 8001582:	4798      	blx	r3
 8001584:	4b18      	ldr	r3, [pc, #96]	@ (80015e8 <DMA2_Stream5_IRQHandler+0x148>)
 8001586:	681b      	ldr	r3, [r3, #0]
 8001588:	f403 6300 	and.w	r3, r3, #2048	@ 0x800
 800158c:	2b00      	cmp	r3, #0
 800158e:	d026      	beq.n	80015de <DMA2_Stream5_IRQHandler+0x13e>
 8001590:	4b16      	ldr	r3, [pc, #88]	@ (80015ec <DMA2_Stream5_IRQHandler+0x14c>)
 8001592:	681b      	ldr	r3, [r3, #0]
 8001594:	6cdb      	ldr	r3, [r3, #76]	@ 0x4c
 8001596:	2b00      	cmp	r3, #0
 8001598:	d021      	beq.n	80015de <DMA2_Stream5_IRQHandler+0x13e>
 800159a:	4b14      	ldr	r3, [pc, #80]	@ (80015ec <DMA2_Stream5_IRQHandler+0x14c>)
 800159c:	681b      	ldr	r3, [r3, #0]
 800159e:	6cdb      	ldr	r3, [r3, #76]	@ 0x4c
 80015a0:	4798      	blx	r3
 80015a2:	4b10      	ldr	r3, [pc, #64]	@ (80015e4 <DMA2_Stream5_IRQHandler+0x144>)
 80015a4:	68db      	ldr	r3, [r3, #12]
 80015a6:	4a0f      	ldr	r2, [pc, #60]	@ (80015e4 <DMA2_Stream5_IRQHandler+0x144>)
 80015a8:	f443 6300 	orr.w	r3, r3, #2048	@ 0x800
 80015ac:	60d3      	str	r3, [r2, #12]
 80015ae:	4b0f      	ldr	r3, [pc, #60]	@ (80015ec <DMA2_Stream5_IRQHandler+0x14c>)
 80015b0:	681b      	ldr	r3, [r3, #0]
 80015b2:	6b9b      	ldr	r3, [r3, #56]	@ 0x38
 80015b4:	f44f 2280 	mov.w	r2, #262144	@ 0x40000
 80015b8:	4293      	cmp	r3, r2
 80015ba:	d110      	bne.n	80015de <DMA2_Stream5_IRQHandler+0x13e>
 80015bc:	4b0b      	ldr	r3, [pc, #44]	@ (80015ec <DMA2_Stream5_IRQHandler+0x14c>)
 80015be:	681b      	ldr	r3, [r3, #0]
 80015c0:	685b      	ldr	r3, [r3, #4]
 80015c2:	681b      	ldr	r3, [r3, #0]
 80015c4:	f403 2380 	and.w	r3, r3, #262144	@ 0x40000
 80015c8:	2b00      	cmp	r3, #0
 80015ca:	d004      	beq.n	80015d6 <DMA2_Stream5_IRQHandler+0x136>
 80015cc:	4b07      	ldr	r3, [pc, #28]	@ (80015ec <DMA2_Stream5_IRQHandler+0x14c>)
 80015ce:	681b      	ldr	r3, [r3, #0]
 80015d0:	6d1b      	ldr	r3, [r3, #80]	@ 0x50
 80015d2:	4798      	blx	r3
 80015d4:	e003      	b.n	80015de <DMA2_Stream5_IRQHandler+0x13e>
 80015d6:	4b05      	ldr	r3, [pc, #20]	@ (80015ec <DMA2_Stream5_IRQHandler+0x14c>)
 80015d8:	681b      	ldr	r3, [r3, #0]
 80015da:	6d5b      	ldr	r3, [r3, #84]	@ 0x54
 80015dc:	4798      	blx	r3
 80015de:	bf00      	nop
 80015e0:	bd80      	pop	{r7, pc}
 80015e2:	bf00      	nop
 80015e4:	40026400 	.word	0x40026400
 80015e8:	20000064 	.word	0x20000064
 80015ec:	20000054 	.word	0x20000054

080015f0 <DMA2_Stream6_IRQHandler>:
 80015f0:	b580      	push	{r7, lr}
 80015f2:	af00      	add	r7, sp, #0
 80015f4:	4b4f      	ldr	r3, [pc, #316]	@ (8001734 <DMA2_Stream6_IRQHandler+0x144>)
 80015f6:	685b      	ldr	r3, [r3, #4]
 80015f8:	4a4f      	ldr	r2, [pc, #316]	@ (8001738 <DMA2_Stream6_IRQHandler+0x148>)
 80015fa:	6013      	str	r3, [r2, #0]
 80015fc:	4b4e      	ldr	r3, [pc, #312]	@ (8001738 <DMA2_Stream6_IRQHandler+0x148>)
 80015fe:	681b      	ldr	r3, [r3, #0]
 8001600:	f403 3380 	and.w	r3, r3, #65536	@ 0x10000
 8001604:	2b00      	cmp	r3, #0
 8001606:	d00e      	beq.n	8001626 <DMA2_Stream6_IRQHandler+0x36>
 8001608:	4b4c      	ldr	r3, [pc, #304]	@ (800173c <DMA2_Stream6_IRQHandler+0x14c>)
 800160a:	681b      	ldr	r3, [r3, #0]
 800160c:	6bdb      	ldr	r3, [r3, #60]	@ 0x3c
 800160e:	2b00      	cmp	r3, #0
 8001610:	d009      	beq.n	8001626 <DMA2_Stream6_IRQHandler+0x36>
 8001612:	4b4a      	ldr	r3, [pc, #296]	@ (800173c <DMA2_Stream6_IRQHandler+0x14c>)
 8001614:	681b      	ldr	r3, [r3, #0]
 8001616:	6bdb      	ldr	r3, [r3, #60]	@ 0x3c
 8001618:	4798      	blx	r3
 800161a:	4b46      	ldr	r3, [pc, #280]	@ (8001734 <DMA2_Stream6_IRQHandler+0x144>)
 800161c:	68db      	ldr	r3, [r3, #12]
 800161e:	4a45      	ldr	r2, [pc, #276]	@ (8001734 <DMA2_Stream6_IRQHandler+0x144>)
 8001620:	f443 3380 	orr.w	r3, r3, #65536	@ 0x10000
 8001624:	60d3      	str	r3, [r2, #12]
 8001626:	4b44      	ldr	r3, [pc, #272]	@ (8001738 <DMA2_Stream6_IRQHandler+0x148>)
 8001628:	681b      	ldr	r3, [r3, #0]
 800162a:	f403 2380 	and.w	r3, r3, #262144	@ 0x40000
 800162e:	2b00      	cmp	r3, #0
 8001630:	d00e      	beq.n	8001650 <DMA2_Stream6_IRQHandler+0x60>
 8001632:	4b42      	ldr	r3, [pc, #264]	@ (800173c <DMA2_Stream6_IRQHandler+0x14c>)
 8001634:	681b      	ldr	r3, [r3, #0]
 8001636:	6c1b      	ldr	r3, [r3, #64]	@ 0x40
 8001638:	2b00      	cmp	r3, #0
 800163a:	d009      	beq.n	8001650 <DMA2_Stream6_IRQHandler+0x60>
 800163c:	4b3f      	ldr	r3, [pc, #252]	@ (800173c <DMA2_Stream6_IRQHandler+0x14c>)
 800163e:	681b      	ldr	r3, [r3, #0]
 8001640:	6c1b      	ldr	r3, [r3, #64]	@ 0x40
 8001642:	4798      	blx	r3
 8001644:	4b3b      	ldr	r3, [pc, #236]	@ (8001734 <DMA2_Stream6_IRQHandler+0x144>)
 8001646:	68db      	ldr	r3, [r3, #12]
 8001648:	4a3a      	ldr	r2, [pc, #232]	@ (8001734 <DMA2_Stream6_IRQHandler+0x144>)
 800164a:	f443 2380 	orr.w	r3, r3, #262144	@ 0x40000
 800164e:	60d3      	str	r3, [r2, #12]
 8001650:	4b39      	ldr	r3, [pc, #228]	@ (8001738 <DMA2_Stream6_IRQHandler+0x148>)
 8001652:	681b      	ldr	r3, [r3, #0]
 8001654:	f403 2300 	and.w	r3, r3, #524288	@ 0x80000
 8001658:	2b00      	cmp	r3, #0
 800165a:	d00e      	beq.n	800167a <DMA2_Stream6_IRQHandler+0x8a>
 800165c:	4b37      	ldr	r3, [pc, #220]	@ (800173c <DMA2_Stream6_IRQHandler+0x14c>)
 800165e:	681b      	ldr	r3, [r3, #0]
 8001660:	6c5b      	ldr	r3, [r3, #68]	@ 0x44
 8001662:	2b00      	cmp	r3, #0
 8001664:	d009      	beq.n	800167a <DMA2_Stream6_IRQHandler+0x8a>
 8001666:	4b35      	ldr	r3, [pc, #212]	@ (800173c <DMA2_Stream6_IRQHandler+0x14c>)
 8001668:	681b      	ldr	r3, [r3, #0]
 800166a:	6c5b      	ldr	r3, [r3, #68]	@ 0x44
 800166c:	4798      	blx	r3
 800166e:	4b31      	ldr	r3, [pc, #196]	@ (8001734 <DMA2_Stream6_IRQHandler+0x144>)
 8001670:	68db      	ldr	r3, [r3, #12]
 8001672:	4a30      	ldr	r2, [pc, #192]	@ (8001734 <DMA2_Stream6_IRQHandler+0x144>)
 8001674:	f443 2300 	orr.w	r3, r3, #524288	@ 0x80000
 8001678:	60d3      	str	r3, [r2, #12]
 800167a:	4b2f      	ldr	r3, [pc, #188]	@ (8001738 <DMA2_Stream6_IRQHandler+0x148>)
 800167c:	681b      	ldr	r3, [r3, #0]
 800167e:	f403 1380 	and.w	r3, r3, #1048576	@ 0x100000
 8001682:	2b00      	cmp	r3, #0
 8001684:	d026      	beq.n	80016d4 <DMA2_Stream6_IRQHandler+0xe4>
 8001686:	4b2d      	ldr	r3, [pc, #180]	@ (800173c <DMA2_Stream6_IRQHandler+0x14c>)
 8001688:	681b      	ldr	r3, [r3, #0]
 800168a:	6c9b      	ldr	r3, [r3, #72]	@ 0x48
 800168c:	2b00      	cmp	r3, #0
 800168e:	d021      	beq.n	80016d4 <DMA2_Stream6_IRQHandler+0xe4>
 8001690:	4b2a      	ldr	r3, [pc, #168]	@ (800173c <DMA2_Stream6_IRQHandler+0x14c>)
 8001692:	681b      	ldr	r3, [r3, #0]
 8001694:	6c9b      	ldr	r3, [r3, #72]	@ 0x48
 8001696:	4798      	blx	r3
 8001698:	4b26      	ldr	r3, [pc, #152]	@ (8001734 <DMA2_Stream6_IRQHandler+0x144>)
 800169a:	68db      	ldr	r3, [r3, #12]
 800169c:	4a25      	ldr	r2, [pc, #148]	@ (8001734 <DMA2_Stream6_IRQHandler+0x144>)
 800169e:	f443 1380 	orr.w	r3, r3, #1048576	@ 0x100000
 80016a2:	60d3      	str	r3, [r2, #12]
 80016a4:	4b25      	ldr	r3, [pc, #148]	@ (800173c <DMA2_Stream6_IRQHandler+0x14c>)
 80016a6:	681b      	ldr	r3, [r3, #0]
 80016a8:	6b9b      	ldr	r3, [r3, #56]	@ 0x38
 80016aa:	f44f 2280 	mov.w	r2, #262144	@ 0x40000
 80016ae:	4293      	cmp	r3, r2
 80016b0:	d110      	bne.n	80016d4 <DMA2_Stream6_IRQHandler+0xe4>
 80016b2:	4b22      	ldr	r3, [pc, #136]	@ (800173c <DMA2_Stream6_IRQHandler+0x14c>)
 80016b4:	681b      	ldr	r3, [r3, #0]
 80016b6:	685b      	ldr	r3, [r3, #4]
 80016b8:	681b      	ldr	r3, [r3, #0]
 80016ba:	f403 2380 	and.w	r3, r3, #262144	@ 0x40000
 80016be:	2b00      	cmp	r3, #0
 80016c0:	d004      	beq.n	80016cc <DMA2_Stream6_IRQHandler+0xdc>
 80016c2:	4b1e      	ldr	r3, [pc, #120]	@ (800173c <DMA2_Stream6_IRQHandler+0x14c>)
 80016c4:	681b      	ldr	r3, [r3, #0]
 80016c6:	6d1b      	ldr	r3, [r3, #80]	@ 0x50
 80016c8:	4798      	blx	r3
 80016ca:	e003      	b.n	80016d4 <DMA2_Stream6_IRQHandler+0xe4>
 80016cc:	4b1b      	ldr	r3, [pc, #108]	@ (800173c <DMA2_Stream6_IRQHandler+0x14c>)
 80016ce:	681b      	ldr	r3, [r3, #0]
 80016d0:	6d5b      	ldr	r3, [r3, #84]	@ 0x54
 80016d2:	4798      	blx	r3
 80016d4:	4b18      	ldr	r3, [pc, #96]	@ (8001738 <DMA2_Stream6_IRQHandler+0x148>)
 80016d6:	681b      	ldr	r3, [r3, #0]
 80016d8:	f403 1300 	and.w	r3, r3, #2097152	@ 0x200000
 80016dc:	2b00      	cmp	r3, #0
 80016de:	d026      	beq.n	800172e <DMA2_Stream6_IRQHandler+0x13e>
 80016e0:	4b16      	ldr	r3, [pc, #88]	@ (800173c <DMA2_Stream6_IRQHandler+0x14c>)
 80016e2:	681b      	ldr	r3, [r3, #0]
 80016e4:	6cdb      	ldr	r3, [r3, #76]	@ 0x4c
 80016e6:	2b00      	cmp	r3, #0
 80016e8:	d021      	beq.n	800172e <DMA2_Stream6_IRQHandler+0x13e>
 80016ea:	4b14      	ldr	r3, [pc, #80]	@ (800173c <DMA2_Stream6_IRQHandler+0x14c>)
 80016ec:	681b      	ldr	r3, [r3, #0]
 80016ee:	6cdb      	ldr	r3, [r3, #76]	@ 0x4c
 80016f0:	4798      	blx	r3
 80016f2:	4b10      	ldr	r3, [pc, #64]	@ (8001734 <DMA2_Stream6_IRQHandler+0x144>)
 80016f4:	68db      	ldr	r3, [r3, #12]
 80016f6:	4a0f      	ldr	r2, [pc, #60]	@ (8001734 <DMA2_Stream6_IRQHandler+0x144>)
 80016f8:	f443 1300 	orr.w	r3, r3, #2097152	@ 0x200000
 80016fc:	60d3      	str	r3, [r2, #12]
 80016fe:	4b0f      	ldr	r3, [pc, #60]	@ (800173c <DMA2_Stream6_IRQHandler+0x14c>)
 8001700:	681b      	ldr	r3, [r3, #0]
 8001702:	6b9b      	ldr	r3, [r3, #56]	@ 0x38
 8001704:	f44f 2280 	mov.w	r2, #262144	@ 0x40000
 8001708:	4293      	cmp	r3, r2
 800170a:	d110      	bne.n	800172e <DMA2_Stream6_IRQHandler+0x13e>
 800170c:	4b0b      	ldr	r3, [pc, #44]	@ (800173c <DMA2_Stream6_IRQHandler+0x14c>)
 800170e:	681b      	ldr	r3, [r3, #0]
 8001710:	685b      	ldr	r3, [r3, #4]
 8001712:	681b      	ldr	r3, [r3, #0]
 8001714:	f403 2380 	and.w	r3, r3, #262144	@ 0x40000
 8001718:	2b00      	cmp	r3, #0
 800171a:	d004      	beq.n	8001726 <DMA2_Stream6_IRQHandler+0x136>
 800171c:	4b07      	ldr	r3, [pc, #28]	@ (800173c <DMA2_Stream6_IRQHandler+0x14c>)
 800171e:	681b      	ldr	r3, [r3, #0]
 8001720:	6d1b      	ldr	r3, [r3, #80]	@ 0x50
 8001722:	4798      	blx	r3
 8001724:	e003      	b.n	800172e <DMA2_Stream6_IRQHandler+0x13e>
 8001726:	4b05      	ldr	r3, [pc, #20]	@ (800173c <DMA2_Stream6_IRQHandler+0x14c>)
 8001728:	681b      	ldr	r3, [r3, #0]
 800172a:	6d5b      	ldr	r3, [r3, #84]	@ 0x54
 800172c:	4798      	blx	r3
 800172e:	bf00      	nop
 8001730:	bd80      	pop	{r7, pc}
 8001732:	bf00      	nop
 8001734:	40026400 	.word	0x40026400
 8001738:	20000064 	.word	0x20000064
 800173c:	20000058 	.word	0x20000058

08001740 <DMA2_Stream7_IRQHandler>:
 8001740:	b580      	push	{r7, lr}
 8001742:	af00      	add	r7, sp, #0
 8001744:	4b4f      	ldr	r3, [pc, #316]	@ (8001884 <DMA2_Stream7_IRQHandler+0x144>)
 8001746:	685b      	ldr	r3, [r3, #4]
 8001748:	4a4f      	ldr	r2, [pc, #316]	@ (8001888 <DMA2_Stream7_IRQHandler+0x148>)
 800174a:	6013      	str	r3, [r2, #0]
 800174c:	4b4e      	ldr	r3, [pc, #312]	@ (8001888 <DMA2_Stream7_IRQHandler+0x148>)
 800174e:	681b      	ldr	r3, [r3, #0]
 8001750:	f403 0380 	and.w	r3, r3, #4194304	@ 0x400000
 8001754:	2b00      	cmp	r3, #0
 8001756:	d00e      	beq.n	8001776 <DMA2_Stream7_IRQHandler+0x36>
 8001758:	4b4c      	ldr	r3, [pc, #304]	@ (800188c <DMA2_Stream7_IRQHandler+0x14c>)
 800175a:	681b      	ldr	r3, [r3, #0]
 800175c:	6bdb      	ldr	r3, [r3, #60]	@ 0x3c
 800175e:	2b00      	cmp	r3, #0
 8001760:	d009      	beq.n	8001776 <DMA2_Stream7_IRQHandler+0x36>
 8001762:	4b4a      	ldr	r3, [pc, #296]	@ (800188c <DMA2_Stream7_IRQHandler+0x14c>)
 8001764:	681b      	ldr	r3, [r3, #0]
 8001766:	6bdb      	ldr	r3, [r3, #60]	@ 0x3c
 8001768:	4798      	blx	r3
 800176a:	4b46      	ldr	r3, [pc, #280]	@ (8001884 <DMA2_Stream7_IRQHandler+0x144>)
 800176c:	68db      	ldr	r3, [r3, #12]
 800176e:	4a45      	ldr	r2, [pc, #276]	@ (8001884 <DMA2_Stream7_IRQHandler+0x144>)
 8001770:	f443 0380 	orr.w	r3, r3, #4194304	@ 0x400000
 8001774:	60d3      	str	r3, [r2, #12]
 8001776:	4b44      	ldr	r3, [pc, #272]	@ (8001888 <DMA2_Stream7_IRQHandler+0x148>)
 8001778:	681b      	ldr	r3, [r3, #0]
 800177a:	f003 7380 	and.w	r3, r3, #16777216	@ 0x1000000
 800177e:	2b00      	cmp	r3, #0
 8001780:	d00e      	beq.n	80017a0 <DMA2_Stream7_IRQHandler+0x60>
 8001782:	4b42      	ldr	r3, [pc, #264]	@ (800188c <DMA2_Stream7_IRQHandler+0x14c>)
 8001784:	681b      	ldr	r3, [r3, #0]
 8001786:	6c1b      	ldr	r3, [r3, #64]	@ 0x40
 8001788:	2b00      	cmp	r3, #0
 800178a:	d009      	beq.n	80017a0 <DMA2_Stream7_IRQHandler+0x60>
 800178c:	4b3f      	ldr	r3, [pc, #252]	@ (800188c <DMA2_Stream7_IRQHandler+0x14c>)
 800178e:	681b      	ldr	r3, [r3, #0]
 8001790:	6c1b      	ldr	r3, [r3, #64]	@ 0x40
 8001792:	4798      	blx	r3
 8001794:	4b3b      	ldr	r3, [pc, #236]	@ (8001884 <DMA2_Stream7_IRQHandler+0x144>)
 8001796:	68db      	ldr	r3, [r3, #12]
 8001798:	4a3a      	ldr	r2, [pc, #232]	@ (8001884 <DMA2_Stream7_IRQHandler+0x144>)
 800179a:	f043 7380 	orr.w	r3, r3, #16777216	@ 0x1000000
 800179e:	60d3      	str	r3, [r2, #12]
 80017a0:	4b39      	ldr	r3, [pc, #228]	@ (8001888 <DMA2_Stream7_IRQHandler+0x148>)
 80017a2:	681b      	ldr	r3, [r3, #0]
 80017a4:	f003 7300 	and.w	r3, r3, #33554432	@ 0x2000000
 80017a8:	2b00      	cmp	r3, #0
 80017aa:	d00e      	beq.n	80017ca <DMA2_Stream7_IRQHandler+0x8a>
 80017ac:	4b37      	ldr	r3, [pc, #220]	@ (800188c <DMA2_Stream7_IRQHandler+0x14c>)
 80017ae:	681b      	ldr	r3, [r3, #0]
 80017b0:	6c5b      	ldr	r3, [r3, #68]	@ 0x44
 80017b2:	2b00      	cmp	r3, #0
 80017b4:	d009      	beq.n	80017ca <DMA2_Stream7_IRQHandler+0x8a>
 80017b6:	4b35      	ldr	r3, [pc, #212]	@ (800188c <DMA2_Stream7_IRQHandler+0x14c>)
 80017b8:	681b      	ldr	r3, [r3, #0]
 80017ba:	6c5b      	ldr	r3, [r3, #68]	@ 0x44
 80017bc:	4798      	blx	r3
 80017be:	4b31      	ldr	r3, [pc, #196]	@ (8001884 <DMA2_Stream7_IRQHandler+0x144>)
 80017c0:	68db      	ldr	r3, [r3, #12]
 80017c2:	4a30      	ldr	r2, [pc, #192]	@ (8001884 <DMA2_Stream7_IRQHandler+0x144>)
 80017c4:	f043 7300 	orr.w	r3, r3, #33554432	@ 0x2000000
 80017c8:	60d3      	str	r3, [r2, #12]
 80017ca:	4b2f      	ldr	r3, [pc, #188]	@ (8001888 <DMA2_Stream7_IRQHandler+0x148>)
 80017cc:	681b      	ldr	r3, [r3, #0]
 80017ce:	f003 6380 	and.w	r3, r3, #67108864	@ 0x4000000
 80017d2:	2b00      	cmp	r3, #0
 80017d4:	d026      	beq.n	8001824 <DMA2_Stream7_IRQHandler+0xe4>
 80017d6:	4b2d      	ldr	r3, [pc, #180]	@ (800188c <DMA2_Stream7_IRQHandler+0x14c>)
 80017d8:	681b      	ldr	r3, [r3, #0]
 80017da:	6c9b      	ldr	r3, [r3, #72]	@ 0x48
 80017dc:	2b00      	cmp	r3, #0
 80017de:	d021      	beq.n	8001824 <DMA2_Stream7_IRQHandler+0xe4>
 80017e0:	4b2a      	ldr	r3, [pc, #168]	@ (800188c <DMA2_Stream7_IRQHandler+0x14c>)
 80017e2:	681b      	ldr	r3, [r3, #0]
 80017e4:	6c9b      	ldr	r3, [r3, #72]	@ 0x48
 80017e6:	4798      	blx	r3
 80017e8:	4b26      	ldr	r3, [pc, #152]	@ (8001884 <DMA2_Stream7_IRQHandler+0x144>)
 80017ea:	68db      	ldr	r3, [r3, #12]
 80017ec:	4a25      	ldr	r2, [pc, #148]	@ (8001884 <DMA2_Stream7_IRQHandler+0x144>)
 80017ee:	f043 6380 	orr.w	r3, r3, #67108864	@ 0x4000000
 80017f2:	60d3      	str	r3, [r2, #12]
 80017f4:	4b25      	ldr	r3, [pc, #148]	@ (800188c <DMA2_Stream7_IRQHandler+0x14c>)
 80017f6:	681b      	ldr	r3, [r3, #0]
 80017f8:	6b9b      	ldr	r3, [r3, #56]	@ 0x38
 80017fa:	f44f 2280 	mov.w	r2, #262144	@ 0x40000
 80017fe:	4293      	cmp	r3, r2
 8001800:	d110      	bne.n	8001824 <DMA2_Stream7_IRQHandler+0xe4>
 8001802:	4b22      	ldr	r3, [pc, #136]	@ (800188c <DMA2_Stream7_IRQHandler+0x14c>)
 8001804:	681b      	ldr	r3, [r3, #0]
 8001806:	685b      	ldr	r3, [r3, #4]
 8001808:	681b      	ldr	r3, [r3, #0]
 800180a:	f403 2380 	and.w	r3, r3, #262144	@ 0x40000
 800180e:	2b00      	cmp	r3, #0
 8001810:	d004      	beq.n	800181c <DMA2_Stream7_IRQHandler+0xdc>
 8001812:	4b1e      	ldr	r3, [pc, #120]	@ (800188c <DMA2_Stream7_IRQHandler+0x14c>)
 8001814:	681b      	ldr	r3, [r3, #0]
 8001816:	6d1b      	ldr	r3, [r3, #80]	@ 0x50
 8001818:	4798      	blx	r3
 800181a:	e003      	b.n	8001824 <DMA2_Stream7_IRQHandler+0xe4>
 800181c:	4b1b      	ldr	r3, [pc, #108]	@ (800188c <DMA2_Stream7_IRQHandler+0x14c>)
 800181e:	681b      	ldr	r3, [r3, #0]
 8001820:	6d5b      	ldr	r3, [r3, #84]	@ 0x54
 8001822:	4798      	blx	r3
 8001824:	4b18      	ldr	r3, [pc, #96]	@ (8001888 <DMA2_Stream7_IRQHandler+0x148>)
 8001826:	681b      	ldr	r3, [r3, #0]
 8001828:	f003 6300 	and.w	r3, r3, #134217728	@ 0x8000000
 800182c:	2b00      	cmp	r3, #0
 800182e:	d026      	beq.n	800187e <DMA2_Stream7_IRQHandler+0x13e>
 8001830:	4b16      	ldr	r3, [pc, #88]	@ (800188c <DMA2_Stream7_IRQHandler+0x14c>)
 8001832:	681b      	ldr	r3, [r3, #0]
 8001834:	6cdb      	ldr	r3, [r3, #76]	@ 0x4c
 8001836:	2b00      	cmp	r3, #0
 8001838:	d021      	beq.n	800187e <DMA2_Stream7_IRQHandler+0x13e>
 800183a:	4b14      	ldr	r3, [pc, #80]	@ (800188c <DMA2_Stream7_IRQHandler+0x14c>)
 800183c:	681b      	ldr	r3, [r3, #0]
 800183e:	6cdb      	ldr	r3, [r3, #76]	@ 0x4c
 8001840:	4798      	blx	r3
 8001842:	4b10      	ldr	r3, [pc, #64]	@ (8001884 <DMA2_Stream7_IRQHandler+0x144>)
 8001844:	68db      	ldr	r3, [r3, #12]
 8001846:	4a0f      	ldr	r2, [pc, #60]	@ (8001884 <DMA2_Stream7_IRQHandler+0x144>)
 8001848:	f043 6300 	orr.w	r3, r3, #134217728	@ 0x8000000
 800184c:	60d3      	str	r3, [r2, #12]
 800184e:	4b0f      	ldr	r3, [pc, #60]	@ (800188c <DMA2_Stream7_IRQHandler+0x14c>)
 8001850:	681b      	ldr	r3, [r3, #0]
 8001852:	6b9b      	ldr	r3, [r3, #56]	@ 0x38
 8001854:	f44f 2280 	mov.w	r2, #262144	@ 0x40000
 8001858:	4293      	cmp	r3, r2
 800185a:	d110      	bne.n	800187e <DMA2_Stream7_IRQHandler+0x13e>
 800185c:	4b0b      	ldr	r3, [pc, #44]	@ (800188c <DMA2_Stream7_IRQHandler+0x14c>)
 800185e:	681b      	ldr	r3, [r3, #0]
 8001860:	685b      	ldr	r3, [r3, #4]
 8001862:	681b      	ldr	r3, [r3, #0]
 8001864:	f403 2380 	and.w	r3, r3, #262144	@ 0x40000
 8001868:	2b00      	cmp	r3, #0
 800186a:	d004      	beq.n	8001876 <DMA2_Stream7_IRQHandler+0x136>
 800186c:	4b07      	ldr	r3, [pc, #28]	@ (800188c <DMA2_Stream7_IRQHandler+0x14c>)
 800186e:	681b      	ldr	r3, [r3, #0]
 8001870:	6d1b      	ldr	r3, [r3, #80]	@ 0x50
 8001872:	4798      	blx	r3
 8001874:	e003      	b.n	800187e <DMA2_Stream7_IRQHandler+0x13e>
 8001876:	4b05      	ldr	r3, [pc, #20]	@ (800188c <DMA2_Stream7_IRQHandler+0x14c>)
 8001878:	681b      	ldr	r3, [r3, #0]
 800187a:	6d5b      	ldr	r3, [r3, #84]	@ 0x54
 800187c:	4798      	blx	r3
 800187e:	bf00      	nop
 8001880:	bd80      	pop	{r7, pc}
 8001882:	bf00      	nop
 8001884:	40026400 	.word	0x40026400
 8001888:	20000064 	.word	0x20000064
 800188c:	2000005c 	.word	0x2000005c

08001890 <EXTI0_IRQHandler>:
 8001890:	b580      	push	{r7, lr}
 8001892:	af00      	add	r7, sp, #0
 8001894:	4b07      	ldr	r3, [pc, #28]	@ (80018b4 <EXTI0_IRQHandler+0x24>)
 8001896:	681b      	ldr	r3, [r3, #0]
 8001898:	2b00      	cmp	r3, #0
 800189a:	d002      	beq.n	80018a2 <EXTI0_IRQHandler+0x12>
 800189c:	4b05      	ldr	r3, [pc, #20]	@ (80018b4 <EXTI0_IRQHandler+0x24>)
 800189e:	681b      	ldr	r3, [r3, #0]
 80018a0:	4798      	blx	r3
 80018a2:	4b05      	ldr	r3, [pc, #20]	@ (80018b8 <EXTI0_IRQHandler+0x28>)
 80018a4:	695b      	ldr	r3, [r3, #20]
 80018a6:	4a04      	ldr	r2, [pc, #16]	@ (80018b8 <EXTI0_IRQHandler+0x28>)
 80018a8:	f043 0301 	orr.w	r3, r3, #1
 80018ac:	6153      	str	r3, [r2, #20]
 80018ae:	bf00      	nop
 80018b0:	bd80      	pop	{r7, pc}
 80018b2:	bf00      	nop
 80018b4:	20000068 	.word	0x20000068
 80018b8:	40013c00 	.word	0x40013c00

080018bc <EXTI1_IRQHandler>:
 80018bc:	b580      	push	{r7, lr}
 80018be:	af00      	add	r7, sp, #0
 80018c0:	4b07      	ldr	r3, [pc, #28]	@ (80018e0 <EXTI1_IRQHandler+0x24>)
 80018c2:	685b      	ldr	r3, [r3, #4]
 80018c4:	2b00      	cmp	r3, #0
 80018c6:	d002      	beq.n	80018ce <EXTI1_IRQHandler+0x12>
 80018c8:	4b05      	ldr	r3, [pc, #20]	@ (80018e0 <EXTI1_IRQHandler+0x24>)
 80018ca:	685b      	ldr	r3, [r3, #4]
 80018cc:	4798      	blx	r3
 80018ce:	4b05      	ldr	r3, [pc, #20]	@ (80018e4 <EXTI1_IRQHandler+0x28>)
 80018d0:	695b      	ldr	r3, [r3, #20]
 80018d2:	4a04      	ldr	r2, [pc, #16]	@ (80018e4 <EXTI1_IRQHandler+0x28>)
 80018d4:	f043 0302 	orr.w	r3, r3, #2
 80018d8:	6153      	str	r3, [r2, #20]
 80018da:	bf00      	nop
 80018dc:	bd80      	pop	{r7, pc}
 80018de:	bf00      	nop
 80018e0:	20000068 	.word	0x20000068
 80018e4:	40013c00 	.word	0x40013c00

080018e8 <EXTI2_IRQHandler>:
 80018e8:	b580      	push	{r7, lr}
 80018ea:	af00      	add	r7, sp, #0
 80018ec:	4b07      	ldr	r3, [pc, #28]	@ (800190c <EXTI2_IRQHandler+0x24>)
 80018ee:	689b      	ldr	r3, [r3, #8]
 80018f0:	2b00      	cmp	r3, #0
 80018f2:	d002      	beq.n	80018fa <EXTI2_IRQHandler+0x12>
 80018f4:	4b05      	ldr	r3, [pc, #20]	@ (800190c <EXTI2_IRQHandler+0x24>)
 80018f6:	689b      	ldr	r3, [r3, #8]
 80018f8:	4798      	blx	r3
 80018fa:	4b05      	ldr	r3, [pc, #20]	@ (8001910 <EXTI2_IRQHandler+0x28>)
 80018fc:	695b      	ldr	r3, [r3, #20]
 80018fe:	4a04      	ldr	r2, [pc, #16]	@ (8001910 <EXTI2_IRQHandler+0x28>)
 8001900:	f043 0304 	orr.w	r3, r3, #4
 8001904:	6153      	str	r3, [r2, #20]
 8001906:	bf00      	nop
 8001908:	bd80      	pop	{r7, pc}
 800190a:	bf00      	nop
 800190c:	20000068 	.word	0x20000068
 8001910:	40013c00 	.word	0x40013c00

08001914 <EXTI3_IRQHandler>:
 8001914:	b580      	push	{r7, lr}
 8001916:	af00      	add	r7, sp, #0
 8001918:	4b07      	ldr	r3, [pc, #28]	@ (8001938 <EXTI3_IRQHandler+0x24>)
 800191a:	68db      	ldr	r3, [r3, #12]
 800191c:	2b00      	cmp	r3, #0
 800191e:	d002      	beq.n	8001926 <EXTI3_IRQHandler+0x12>
 8001920:	4b05      	ldr	r3, [pc, #20]	@ (8001938 <EXTI3_IRQHandler+0x24>)
 8001922:	68db      	ldr	r3, [r3, #12]
 8001924:	4798      	blx	r3
 8001926:	4b05      	ldr	r3, [pc, #20]	@ (800193c <EXTI3_IRQHandler+0x28>)
 8001928:	695b      	ldr	r3, [r3, #20]
 800192a:	4a04      	ldr	r2, [pc, #16]	@ (800193c <EXTI3_IRQHandler+0x28>)
 800192c:	f043 0308 	orr.w	r3, r3, #8
 8001930:	6153      	str	r3, [r2, #20]
 8001932:	bf00      	nop
 8001934:	bd80      	pop	{r7, pc}
 8001936:	bf00      	nop
 8001938:	20000068 	.word	0x20000068
 800193c:	40013c00 	.word	0x40013c00

08001940 <EXTI4_IRQHandler>:
 8001940:	b580      	push	{r7, lr}
 8001942:	af00      	add	r7, sp, #0
 8001944:	4b07      	ldr	r3, [pc, #28]	@ (8001964 <EXTI4_IRQHandler+0x24>)
 8001946:	691b      	ldr	r3, [r3, #16]
 8001948:	2b00      	cmp	r3, #0
 800194a:	d002      	beq.n	8001952 <EXTI4_IRQHandler+0x12>
 800194c:	4b05      	ldr	r3, [pc, #20]	@ (8001964 <EXTI4_IRQHandler+0x24>)
 800194e:	691b      	ldr	r3, [r3, #16]
 8001950:	4798      	blx	r3
 8001952:	4b05      	ldr	r3, [pc, #20]	@ (8001968 <EXTI4_IRQHandler+0x28>)
 8001954:	695b      	ldr	r3, [r3, #20]
 8001956:	4a04      	ldr	r2, [pc, #16]	@ (8001968 <EXTI4_IRQHandler+0x28>)
 8001958:	f043 0310 	orr.w	r3, r3, #16
 800195c:	6153      	str	r3, [r2, #20]
 800195e:	bf00      	nop
 8001960:	bd80      	pop	{r7, pc}
 8001962:	bf00      	nop
 8001964:	20000068 	.word	0x20000068
 8001968:	40013c00 	.word	0x40013c00

0800196c <EXTI9_5_IRQHandler>:
 800196c:	b580      	push	{r7, lr}
 800196e:	b082      	sub	sp, #8
 8001970:	af00      	add	r7, sp, #0
 8001972:	2305      	movs	r3, #5
 8001974:	607b      	str	r3, [r7, #4]
 8001976:	e020      	b.n	80019ba <EXTI9_5_IRQHandler+0x4e>
 8001978:	4b14      	ldr	r3, [pc, #80]	@ (80019cc <EXTI9_5_IRQHandler+0x60>)
 800197a:	695b      	ldr	r3, [r3, #20]
 800197c:	2101      	movs	r1, #1
 800197e:	687a      	ldr	r2, [r7, #4]
 8001980:	fa01 f202 	lsl.w	r2, r1, r2
 8001984:	4013      	ands	r3, r2
 8001986:	2b00      	cmp	r3, #0
 8001988:	d014      	beq.n	80019b4 <EXTI9_5_IRQHandler+0x48>
 800198a:	4a11      	ldr	r2, [pc, #68]	@ (80019d0 <EXTI9_5_IRQHandler+0x64>)
 800198c:	687b      	ldr	r3, [r7, #4]
 800198e:	f852 3023 	ldr.w	r3, [r2, r3, lsl #2]
 8001992:	2b00      	cmp	r3, #0
 8001994:	d00e      	beq.n	80019b4 <EXTI9_5_IRQHandler+0x48>
 8001996:	4a0e      	ldr	r2, [pc, #56]	@ (80019d0 <EXTI9_5_IRQHandler+0x64>)
 8001998:	687b      	ldr	r3, [r7, #4]
 800199a:	f852 3023 	ldr.w	r3, [r2, r3, lsl #2]
 800199e:	4798      	blx	r3
 80019a0:	4b0a      	ldr	r3, [pc, #40]	@ (80019cc <EXTI9_5_IRQHandler+0x60>)
 80019a2:	695b      	ldr	r3, [r3, #20]
 80019a4:	2101      	movs	r1, #1
 80019a6:	687a      	ldr	r2, [r7, #4]
 80019a8:	fa01 f202 	lsl.w	r2, r1, r2
 80019ac:	4611      	mov	r1, r2
 80019ae:	4a07      	ldr	r2, [pc, #28]	@ (80019cc <EXTI9_5_IRQHandler+0x60>)
 80019b0:	430b      	orrs	r3, r1
 80019b2:	6153      	str	r3, [r2, #20]
 80019b4:	687b      	ldr	r3, [r7, #4]
 80019b6:	3301      	adds	r3, #1
 80019b8:	607b      	str	r3, [r7, #4]
 80019ba:	687b      	ldr	r3, [r7, #4]
 80019bc:	2b09      	cmp	r3, #9
 80019be:	dddb      	ble.n	8001978 <EXTI9_5_IRQHandler+0xc>
 80019c0:	bf00      	nop
 80019c2:	bf00      	nop
 80019c4:	3708      	adds	r7, #8
 80019c6:	46bd      	mov	sp, r7
 80019c8:	bd80      	pop	{r7, pc}
 80019ca:	bf00      	nop
 80019cc:	40013c00 	.word	0x40013c00
 80019d0:	20000068 	.word	0x20000068

080019d4 <EXTI15_10_IRQHandler>:
 80019d4:	b580      	push	{r7, lr}
 80019d6:	b082      	sub	sp, #8
 80019d8:	af00      	add	r7, sp, #0
 80019da:	230a      	movs	r3, #10
 80019dc:	607b      	str	r3, [r7, #4]
 80019de:	e020      	b.n	8001a22 <EXTI15_10_IRQHandler+0x4e>
 80019e0:	4b14      	ldr	r3, [pc, #80]	@ (8001a34 <EXTI15_10_IRQHandler+0x60>)
 80019e2:	695b      	ldr	r3, [r3, #20]
 80019e4:	2101      	movs	r1, #1
 80019e6:	687a      	ldr	r2, [r7, #4]
 80019e8:	fa01 f202 	lsl.w	r2, r1, r2
 80019ec:	4013      	ands	r3, r2
 80019ee:	2b00      	cmp	r3, #0
 80019f0:	d014      	beq.n	8001a1c <EXTI15_10_IRQHandler+0x48>
 80019f2:	4a11      	ldr	r2, [pc, #68]	@ (8001a38 <EXTI15_10_IRQHandler+0x64>)
 80019f4:	687b      	ldr	r3, [r7, #4]
 80019f6:	f852 3023 	ldr.w	r3, [r2, r3, lsl #2]
 80019fa:	2b00      	cmp	r3, #0
 80019fc:	d00e      	beq.n	8001a1c <EXTI15_10_IRQHandler+0x48>
 80019fe:	4a0e      	ldr	r2, [pc, #56]	@ (8001a38 <EXTI15_10_IRQHandler+0x64>)
 8001a00:	687b      	ldr	r3, [r7, #4]
 8001a02:	f852 3023 	ldr.w	r3, [r2, r3, lsl #2]
 8001a06:	4798      	blx	r3
 8001a08:	4b0a      	ldr	r3, [pc, #40]	@ (8001a34 <EXTI15_10_IRQHandler+0x60>)
 8001a0a:	695b      	ldr	r3, [r3, #20]
 8001a0c:	2101      	movs	r1, #1
 8001a0e:	687a      	ldr	r2, [r7, #4]
 8001a10:	fa01 f202 	lsl.w	r2, r1, r2
 8001a14:	4611      	mov	r1, r2
 8001a16:	4a07      	ldr	r2, [pc, #28]	@ (8001a34 <EXTI15_10_IRQHandler+0x60>)
 8001a18:	430b      	orrs	r3, r1
 8001a1a:	6153      	str	r3, [r2, #20]
 8001a1c:	687b      	ldr	r3, [r7, #4]
 8001a1e:	3301      	adds	r3, #1
 8001a20:	607b      	str	r3, [r7, #4]
 8001a22:	687b      	ldr	r3, [r7, #4]
 8001a24:	2b0f      	cmp	r3, #15
 8001a26:	dddb      	ble.n	80019e0 <EXTI15_10_IRQHandler+0xc>
 8001a28:	bf00      	nop
 8001a2a:	bf00      	nop
 8001a2c:	3708      	adds	r7, #8
 8001a2e:	46bd      	mov	sp, r7
 8001a30:	bd80      	pop	{r7, pc}
 8001a32:	bf00      	nop
 8001a34:	40013c00 	.word	0x40013c00
 8001a38:	20000068 	.word	0x20000068

08001a3c <GPIO_Clock_Enable>:
 8001a3c:	b480      	push	{r7}
 8001a3e:	b083      	sub	sp, #12
 8001a40:	af00      	add	r7, sp, #0
 8001a42:	6078      	str	r0, [r7, #4]
 8001a44:	687b      	ldr	r3, [r7, #4]
 8001a46:	4a30      	ldr	r2, [pc, #192]	@ (8001b08 <GPIO_Clock_Enable+0xcc>)
 8001a48:	4293      	cmp	r3, r2
 8001a4a:	d04b      	beq.n	8001ae4 <GPIO_Clock_Enable+0xa8>
 8001a4c:	4a2e      	ldr	r2, [pc, #184]	@ (8001b08 <GPIO_Clock_Enable+0xcc>)
 8001a4e:	4293      	cmp	r3, r2
 8001a50:	d84f      	bhi.n	8001af2 <GPIO_Clock_Enable+0xb6>
 8001a52:	4a2e      	ldr	r2, [pc, #184]	@ (8001b0c <GPIO_Clock_Enable+0xd0>)
 8001a54:	4293      	cmp	r3, r2
 8001a56:	d03e      	beq.n	8001ad6 <GPIO_Clock_Enable+0x9a>
 8001a58:	4a2c      	ldr	r2, [pc, #176]	@ (8001b0c <GPIO_Clock_Enable+0xd0>)
 8001a5a:	4293      	cmp	r3, r2
 8001a5c:	d849      	bhi.n	8001af2 <GPIO_Clock_Enable+0xb6>
 8001a5e:	4a2c      	ldr	r2, [pc, #176]	@ (8001b10 <GPIO_Clock_Enable+0xd4>)
 8001a60:	4293      	cmp	r3, r2
 8001a62:	d031      	beq.n	8001ac8 <GPIO_Clock_Enable+0x8c>
 8001a64:	4a2a      	ldr	r2, [pc, #168]	@ (8001b10 <GPIO_Clock_Enable+0xd4>)
 8001a66:	4293      	cmp	r3, r2
 8001a68:	d843      	bhi.n	8001af2 <GPIO_Clock_Enable+0xb6>
 8001a6a:	4a2a      	ldr	r2, [pc, #168]	@ (8001b14 <GPIO_Clock_Enable+0xd8>)
 8001a6c:	4293      	cmp	r3, r2
 8001a6e:	d024      	beq.n	8001aba <GPIO_Clock_Enable+0x7e>
 8001a70:	4a28      	ldr	r2, [pc, #160]	@ (8001b14 <GPIO_Clock_Enable+0xd8>)
 8001a72:	4293      	cmp	r3, r2
 8001a74:	d83d      	bhi.n	8001af2 <GPIO_Clock_Enable+0xb6>
 8001a76:	4a28      	ldr	r2, [pc, #160]	@ (8001b18 <GPIO_Clock_Enable+0xdc>)
 8001a78:	4293      	cmp	r3, r2
 8001a7a:	d017      	beq.n	8001aac <GPIO_Clock_Enable+0x70>
 8001a7c:	4a26      	ldr	r2, [pc, #152]	@ (8001b18 <GPIO_Clock_Enable+0xdc>)
 8001a7e:	4293      	cmp	r3, r2
 8001a80:	d837      	bhi.n	8001af2 <GPIO_Clock_Enable+0xb6>
 8001a82:	4a26      	ldr	r2, [pc, #152]	@ (8001b1c <GPIO_Clock_Enable+0xe0>)
 8001a84:	4293      	cmp	r3, r2
 8001a86:	d003      	beq.n	8001a90 <GPIO_Clock_Enable+0x54>
 8001a88:	4a25      	ldr	r2, [pc, #148]	@ (8001b20 <GPIO_Clock_Enable+0xe4>)
 8001a8a:	4293      	cmp	r3, r2
 8001a8c:	d007      	beq.n	8001a9e <GPIO_Clock_Enable+0x62>
 8001a8e:	e030      	b.n	8001af2 <GPIO_Clock_Enable+0xb6>
 8001a90:	4b24      	ldr	r3, [pc, #144]	@ (8001b24 <GPIO_Clock_Enable+0xe8>)
 8001a92:	6b1b      	ldr	r3, [r3, #48]	@ 0x30
 8001a94:	4a23      	ldr	r2, [pc, #140]	@ (8001b24 <GPIO_Clock_Enable+0xe8>)
 8001a96:	f043 0301 	orr.w	r3, r3, #1
 8001a9a:	6313      	str	r3, [r2, #48]	@ 0x30
 8001a9c:	e02c      	b.n	8001af8 <GPIO_Clock_Enable+0xbc>
 8001a9e:	4b21      	ldr	r3, [pc, #132]	@ (8001b24 <GPIO_Clock_Enable+0xe8>)
 8001aa0:	6b1b      	ldr	r3, [r3, #48]	@ 0x30
 8001aa2:	4a20      	ldr	r2, [pc, #128]	@ (8001b24 <GPIO_Clock_Enable+0xe8>)
 8001aa4:	f043 0302 	orr.w	r3, r3, #2
 8001aa8:	6313      	str	r3, [r2, #48]	@ 0x30
 8001aaa:	e025      	b.n	8001af8 <GPIO_Clock_Enable+0xbc>
 8001aac:	4b1d      	ldr	r3, [pc, #116]	@ (8001b24 <GPIO_Clock_Enable+0xe8>)
 8001aae:	6b1b      	ldr	r3, [r3, #48]	@ 0x30
 8001ab0:	4a1c      	ldr	r2, [pc, #112]	@ (8001b24 <GPIO_Clock_Enable+0xe8>)
 8001ab2:	f043 0304 	orr.w	r3, r3, #4
 8001ab6:	6313      	str	r3, [r2, #48]	@ 0x30
 8001ab8:	e01e      	b.n	8001af8 <GPIO_Clock_Enable+0xbc>
 8001aba:	4b1a      	ldr	r3, [pc, #104]	@ (8001b24 <GPIO_Clock_Enable+0xe8>)
 8001abc:	6b1b      	ldr	r3, [r3, #48]	@ 0x30
 8001abe:	4a19      	ldr	r2, [pc, #100]	@ (8001b24 <GPIO_Clock_Enable+0xe8>)
 8001ac0:	f043 0308 	orr.w	r3, r3, #8
 8001ac4:	6313      	str	r3, [r2, #48]	@ 0x30
 8001ac6:	e017      	b.n	8001af8 <GPIO_Clock_Enable+0xbc>
 8001ac8:	4b16      	ldr	r3, [pc, #88]	@ (8001b24 <GPIO_Clock_Enable+0xe8>)
 8001aca:	6b1b      	ldr	r3, [r3, #48]	@ 0x30
 8001acc:	4a15      	ldr	r2, [pc, #84]	@ (8001b24 <GPIO_Clock_Enable+0xe8>)
 8001ace:	f043 0310 	orr.w	r3, r3, #16
 8001ad2:	6313      	str	r3, [r2, #48]	@ 0x30
 8001ad4:	e010      	b.n	8001af8 <GPIO_Clock_Enable+0xbc>
 8001ad6:	4b13      	ldr	r3, [pc, #76]	@ (8001b24 <GPIO_Clock_Enable+0xe8>)
 8001ad8:	6b1b      	ldr	r3, [r3, #48]	@ 0x30
 8001ada:	4a12      	ldr	r2, [pc, #72]	@ (8001b24 <GPIO_Clock_Enable+0xe8>)
 8001adc:	f043 0320 	orr.w	r3, r3, #32
 8001ae0:	6313      	str	r3, [r2, #48]	@ 0x30
 8001ae2:	e009      	b.n	8001af8 <GPIO_Clock_Enable+0xbc>
 8001ae4:	4b0f      	ldr	r3, [pc, #60]	@ (8001b24 <GPIO_Clock_Enable+0xe8>)
 8001ae6:	6b1b      	ldr	r3, [r3, #48]	@ 0x30
 8001ae8:	4a0e      	ldr	r2, [pc, #56]	@ (8001b24 <GPIO_Clock_Enable+0xe8>)
 8001aea:	f043 0380 	orr.w	r3, r3, #128	@ 0x80
 8001aee:	6313      	str	r3, [r2, #48]	@ 0x30
 8001af0:	e002      	b.n	8001af8 <GPIO_Clock_Enable+0xbc>
 8001af2:	f04f 33ff 	mov.w	r3, #4294967295
 8001af6:	e000      	b.n	8001afa <GPIO_Clock_Enable+0xbe>
 8001af8:	2300      	movs	r3, #0
 8001afa:	4618      	mov	r0, r3
 8001afc:	370c      	adds	r7, #12
 8001afe:	46bd      	mov	sp, r7
 8001b00:	f85d 7b04 	ldr.w	r7, [sp], #4
 8001b04:	4770      	bx	lr
 8001b06:	bf00      	nop
 8001b08:	40021c00 	.word	0x40021c00
 8001b0c:	40021400 	.word	0x40021400
 8001b10:	40021000 	.word	0x40021000
 8001b14:	40020c00 	.word	0x40020c00
 8001b18:	40020800 	.word	0x40020800
 8001b1c:	40020000 	.word	0x40020000
 8001b20:	40020400 	.word	0x40020400
 8001b24:	40023800 	.word	0x40023800

08001b28 <GPIO_Pin_Init>:
 8001b28:	b580      	push	{r7, lr}
 8001b2a:	b082      	sub	sp, #8
 8001b2c:	af00      	add	r7, sp, #0
 8001b2e:	6078      	str	r0, [r7, #4]
 8001b30:	4608      	mov	r0, r1
 8001b32:	4611      	mov	r1, r2
 8001b34:	461a      	mov	r2, r3
 8001b36:	4603      	mov	r3, r0
 8001b38:	70fb      	strb	r3, [r7, #3]
 8001b3a:	460b      	mov	r3, r1
 8001b3c:	70bb      	strb	r3, [r7, #2]
 8001b3e:	4613      	mov	r3, r2
 8001b40:	707b      	strb	r3, [r7, #1]
 8001b42:	6878      	ldr	r0, [r7, #4]
 8001b44:	f7ff ff7a 	bl	8001a3c <GPIO_Clock_Enable>
 8001b48:	687b      	ldr	r3, [r7, #4]
 8001b4a:	681b      	ldr	r3, [r3, #0]
 8001b4c:	78fa      	ldrb	r2, [r7, #3]
 8001b4e:	0052      	lsls	r2, r2, #1
 8001b50:	2103      	movs	r1, #3
 8001b52:	fa01 f202 	lsl.w	r2, r1, r2
 8001b56:	43d2      	mvns	r2, r2
 8001b58:	401a      	ands	r2, r3
 8001b5a:	687b      	ldr	r3, [r7, #4]
 8001b5c:	601a      	str	r2, [r3, #0]
 8001b5e:	687b      	ldr	r3, [r7, #4]
 8001b60:	681b      	ldr	r3, [r3, #0]
 8001b62:	78b9      	ldrb	r1, [r7, #2]
 8001b64:	78fa      	ldrb	r2, [r7, #3]
 8001b66:	0052      	lsls	r2, r2, #1
 8001b68:	fa01 f202 	lsl.w	r2, r1, r2
 8001b6c:	431a      	orrs	r2, r3
 8001b6e:	687b      	ldr	r3, [r7, #4]
 8001b70:	601a      	str	r2, [r3, #0]
 8001b72:	687b      	ldr	r3, [r7, #4]
 8001b74:	685b      	ldr	r3, [r3, #4]
 8001b76:	78fa      	ldrb	r2, [r7, #3]
 8001b78:	2101      	movs	r1, #1
 8001b7a:	fa01 f202 	lsl.w	r2, r1, r2
 8001b7e:	43d2      	mvns	r2, r2
 8001b80:	401a      	ands	r2, r3
 8001b82:	687b      	ldr	r3, [r7, #4]
 8001b84:	605a      	str	r2, [r3, #4]
 8001b86:	2202      	movs	r2, #2
 8001b88:	787b      	ldrb	r3, [r7, #1]
 8001b8a:	4293      	cmp	r3, r2
 8001b8c:	d008      	beq.n	8001ba0 <GPIO_Pin_Init+0x78>
 8001b8e:	687b      	ldr	r3, [r7, #4]
 8001b90:	685b      	ldr	r3, [r3, #4]
 8001b92:	7879      	ldrb	r1, [r7, #1]
 8001b94:	78fa      	ldrb	r2, [r7, #3]
 8001b96:	fa01 f202 	lsl.w	r2, r1, r2
 8001b9a:	431a      	orrs	r2, r3
 8001b9c:	687b      	ldr	r3, [r7, #4]
 8001b9e:	605a      	str	r2, [r3, #4]
 8001ba0:	687b      	ldr	r3, [r7, #4]
 8001ba2:	689b      	ldr	r3, [r3, #8]
 8001ba4:	78fa      	ldrb	r2, [r7, #3]
 8001ba6:	0052      	lsls	r2, r2, #1
 8001ba8:	2103      	movs	r1, #3
 8001baa:	fa01 f202 	lsl.w	r2, r1, r2
 8001bae:	43d2      	mvns	r2, r2
 8001bb0:	401a      	ands	r2, r3
 8001bb2:	687b      	ldr	r3, [r7, #4]
 8001bb4:	609a      	str	r2, [r3, #8]
 8001bb6:	2204      	movs	r2, #4
 8001bb8:	7c3b      	ldrb	r3, [r7, #16]
 8001bba:	4293      	cmp	r3, r2
 8001bbc:	d009      	beq.n	8001bd2 <GPIO_Pin_Init+0xaa>
 8001bbe:	687b      	ldr	r3, [r7, #4]
 8001bc0:	689b      	ldr	r3, [r3, #8]
 8001bc2:	7c39      	ldrb	r1, [r7, #16]
 8001bc4:	78fa      	ldrb	r2, [r7, #3]
 8001bc6:	0052      	lsls	r2, r2, #1
 8001bc8:	fa01 f202 	lsl.w	r2, r1, r2
 8001bcc:	431a      	orrs	r2, r3
 8001bce:	687b      	ldr	r3, [r7, #4]
 8001bd0:	609a      	str	r2, [r3, #8]
 8001bd2:	687b      	ldr	r3, [r7, #4]
 8001bd4:	68db      	ldr	r3, [r3, #12]
 8001bd6:	78fa      	ldrb	r2, [r7, #3]
 8001bd8:	0052      	lsls	r2, r2, #1
 8001bda:	2103      	movs	r1, #3
 8001bdc:	fa01 f202 	lsl.w	r2, r1, r2
 8001be0:	43d2      	mvns	r2, r2
 8001be2:	401a      	ands	r2, r3
 8001be4:	687b      	ldr	r3, [r7, #4]
 8001be6:	60da      	str	r2, [r3, #12]
 8001be8:	2204      	movs	r2, #4
 8001bea:	7d3b      	ldrb	r3, [r7, #20]
 8001bec:	4293      	cmp	r3, r2
 8001bee:	d009      	beq.n	8001c04 <GPIO_Pin_Init+0xdc>
 8001bf0:	687b      	ldr	r3, [r7, #4]
 8001bf2:	68db      	ldr	r3, [r3, #12]
 8001bf4:	7d39      	ldrb	r1, [r7, #20]
 8001bf6:	78fa      	ldrb	r2, [r7, #3]
 8001bf8:	0052      	lsls	r2, r2, #1
 8001bfa:	fa01 f202 	lsl.w	r2, r1, r2
 8001bfe:	431a      	orrs	r2, r3
 8001c00:	687b      	ldr	r3, [r7, #4]
 8001c02:	60da      	str	r2, [r3, #12]
 8001c04:	2202      	movs	r2, #2
 8001c06:	78bb      	ldrb	r3, [r7, #2]
 8001c08:	4293      	cmp	r3, r2
 8001c0a:	d12f      	bne.n	8001c6c <GPIO_Pin_Init+0x144>
 8001c0c:	78fb      	ldrb	r3, [r7, #3]
 8001c0e:	2b07      	cmp	r3, #7
 8001c10:	d815      	bhi.n	8001c3e <GPIO_Pin_Init+0x116>
 8001c12:	687b      	ldr	r3, [r7, #4]
 8001c14:	6a1b      	ldr	r3, [r3, #32]
 8001c16:	78fa      	ldrb	r2, [r7, #3]
 8001c18:	0092      	lsls	r2, r2, #2
 8001c1a:	210f      	movs	r1, #15
 8001c1c:	fa01 f202 	lsl.w	r2, r1, r2
 8001c20:	43d2      	mvns	r2, r2
 8001c22:	401a      	ands	r2, r3
 8001c24:	687b      	ldr	r3, [r7, #4]
 8001c26:	621a      	str	r2, [r3, #32]
 8001c28:	687b      	ldr	r3, [r7, #4]
 8001c2a:	6a1b      	ldr	r3, [r3, #32]
 8001c2c:	7e39      	ldrb	r1, [r7, #24]
 8001c2e:	78fa      	ldrb	r2, [r7, #3]
 8001c30:	0092      	lsls	r2, r2, #2
 8001c32:	fa01 f202 	lsl.w	r2, r1, r2
 8001c36:	431a      	orrs	r2, r3
 8001c38:	687b      	ldr	r3, [r7, #4]
 8001c3a:	621a      	str	r2, [r3, #32]
 8001c3c:	e016      	b.n	8001c6c <GPIO_Pin_Init+0x144>
 8001c3e:	687b      	ldr	r3, [r7, #4]
 8001c40:	6a5b      	ldr	r3, [r3, #36]	@ 0x24
 8001c42:	78fa      	ldrb	r2, [r7, #3]
 8001c44:	3a08      	subs	r2, #8
 8001c46:	0092      	lsls	r2, r2, #2
 8001c48:	210f      	movs	r1, #15
 8001c4a:	fa01 f202 	lsl.w	r2, r1, r2
 8001c4e:	43d2      	mvns	r2, r2
 8001c50:	401a      	ands	r2, r3
 8001c52:	687b      	ldr	r3, [r7, #4]
 8001c54:	625a      	str	r2, [r3, #36]	@ 0x24
 8001c56:	687b      	ldr	r3, [r7, #4]
 8001c58:	6a5b      	ldr	r3, [r3, #36]	@ 0x24
 8001c5a:	7e39      	ldrb	r1, [r7, #24]
 8001c5c:	78fa      	ldrb	r2, [r7, #3]
 8001c5e:	3a08      	subs	r2, #8
 8001c60:	0092      	lsls	r2, r2, #2
 8001c62:	fa01 f202 	lsl.w	r2, r1, r2
 8001c66:	431a      	orrs	r2, r3
 8001c68:	687b      	ldr	r3, [r7, #4]
 8001c6a:	625a      	str	r2, [r3, #36]	@ 0x24
 8001c6c:	2300      	movs	r3, #0
 8001c6e:	4618      	mov	r0, r3
 8001c70:	3708      	adds	r7, #8
 8001c72:	46bd      	mov	sp, r7
 8001c74:	bd80      	pop	{r7, pc}
	...

08001c78 <UART4_IRQHandler>:
 8001c78:	b580      	push	{r7, lr}
 8001c7a:	af00      	add	r7, sp, #0
 8001c7c:	4b57      	ldr	r3, [pc, #348]	@ (8001ddc <UART4_IRQHandler+0x164>)
 8001c7e:	681b      	ldr	r3, [r3, #0]
 8001c80:	b29a      	uxth	r2, r3
 8001c82:	4b57      	ldr	r3, [pc, #348]	@ (8001de0 <UART4_IRQHandler+0x168>)
 8001c84:	801a      	strh	r2, [r3, #0]
 8001c86:	4b56      	ldr	r3, [pc, #344]	@ (8001de0 <UART4_IRQHandler+0x168>)
 8001c88:	881b      	ldrh	r3, [r3, #0]
 8001c8a:	b29b      	uxth	r3, r3
 8001c8c:	f403 7300 	and.w	r3, r3, #512	@ 0x200
 8001c90:	2b00      	cmp	r3, #0
 8001c92:	d010      	beq.n	8001cb6 <UART4_IRQHandler+0x3e>
 8001c94:	4b53      	ldr	r3, [pc, #332]	@ (8001de4 <UART4_IRQHandler+0x16c>)
 8001c96:	681b      	ldr	r3, [r3, #0]
 8001c98:	f8d3 30d8 	ldr.w	r3, [r3, #216]	@ 0xd8
 8001c9c:	2b00      	cmp	r3, #0
 8001c9e:	d00a      	beq.n	8001cb6 <UART4_IRQHandler+0x3e>
 8001ca0:	4b50      	ldr	r3, [pc, #320]	@ (8001de4 <UART4_IRQHandler+0x16c>)
 8001ca2:	681b      	ldr	r3, [r3, #0]
 8001ca4:	f8d3 30d8 	ldr.w	r3, [r3, #216]	@ 0xd8
 8001ca8:	4798      	blx	r3
 8001caa:	4b4c      	ldr	r3, [pc, #304]	@ (8001ddc <UART4_IRQHandler+0x164>)
 8001cac:	681b      	ldr	r3, [r3, #0]
 8001cae:	4a4b      	ldr	r2, [pc, #300]	@ (8001ddc <UART4_IRQHandler+0x164>)
 8001cb0:	f423 7300 	bic.w	r3, r3, #512	@ 0x200
 8001cb4:	6013      	str	r3, [r2, #0]
 8001cb6:	4b4a      	ldr	r3, [pc, #296]	@ (8001de0 <UART4_IRQHandler+0x168>)
 8001cb8:	881b      	ldrh	r3, [r3, #0]
 8001cba:	b29b      	uxth	r3, r3
 8001cbc:	f403 7380 	and.w	r3, r3, #256	@ 0x100
 8001cc0:	2b00      	cmp	r3, #0
 8001cc2:	d010      	beq.n	8001ce6 <UART4_IRQHandler+0x6e>
 8001cc4:	4b47      	ldr	r3, [pc, #284]	@ (8001de4 <UART4_IRQHandler+0x16c>)
 8001cc6:	681b      	ldr	r3, [r3, #0]
 8001cc8:	f8d3 30e0 	ldr.w	r3, [r3, #224]	@ 0xe0
 8001ccc:	2b00      	cmp	r3, #0
 8001cce:	d00a      	beq.n	8001ce6 <UART4_IRQHandler+0x6e>
 8001cd0:	4b44      	ldr	r3, [pc, #272]	@ (8001de4 <UART4_IRQHandler+0x16c>)
 8001cd2:	681b      	ldr	r3, [r3, #0]
 8001cd4:	f8d3 30e0 	ldr.w	r3, [r3, #224]	@ 0xe0
 8001cd8:	4798      	blx	r3
 8001cda:	4b40      	ldr	r3, [pc, #256]	@ (8001ddc <UART4_IRQHandler+0x164>)
 8001cdc:	681b      	ldr	r3, [r3, #0]
 8001cde:	4a3f      	ldr	r2, [pc, #252]	@ (8001ddc <UART4_IRQHandler+0x164>)
 8001ce0:	f423 7380 	bic.w	r3, r3, #256	@ 0x100
 8001ce4:	6013      	str	r3, [r2, #0]
 8001ce6:	4b3e      	ldr	r3, [pc, #248]	@ (8001de0 <UART4_IRQHandler+0x168>)
 8001ce8:	881b      	ldrh	r3, [r3, #0]
 8001cea:	b29b      	uxth	r3, r3
 8001cec:	f003 0380 	and.w	r3, r3, #128	@ 0x80
 8001cf0:	2b00      	cmp	r3, #0
 8001cf2:	d010      	beq.n	8001d16 <UART4_IRQHandler+0x9e>
 8001cf4:	4b3b      	ldr	r3, [pc, #236]	@ (8001de4 <UART4_IRQHandler+0x16c>)
 8001cf6:	681b      	ldr	r3, [r3, #0]
 8001cf8:	f8d3 30c8 	ldr.w	r3, [r3, #200]	@ 0xc8
 8001cfc:	2b00      	cmp	r3, #0
 8001cfe:	d00a      	beq.n	8001d16 <UART4_IRQHandler+0x9e>
 8001d00:	4b38      	ldr	r3, [pc, #224]	@ (8001de4 <UART4_IRQHandler+0x16c>)
 8001d02:	681b      	ldr	r3, [r3, #0]
 8001d04:	f8d3 30c8 	ldr.w	r3, [r3, #200]	@ 0xc8
 8001d08:	4798      	blx	r3
 8001d0a:	4b34      	ldr	r3, [pc, #208]	@ (8001ddc <UART4_IRQHandler+0x164>)
 8001d0c:	681b      	ldr	r3, [r3, #0]
 8001d0e:	4a33      	ldr	r2, [pc, #204]	@ (8001ddc <UART4_IRQHandler+0x164>)
 8001d10:	f023 0380 	bic.w	r3, r3, #128	@ 0x80
 8001d14:	6013      	str	r3, [r2, #0]
 8001d16:	4b32      	ldr	r3, [pc, #200]	@ (8001de0 <UART4_IRQHandler+0x168>)
 8001d18:	881b      	ldrh	r3, [r3, #0]
 8001d1a:	b29b      	uxth	r3, r3
 8001d1c:	f003 0340 	and.w	r3, r3, #64	@ 0x40
 8001d20:	2b00      	cmp	r3, #0
 8001d22:	d010      	beq.n	8001d46 <UART4_IRQHandler+0xce>
 8001d24:	4b2f      	ldr	r3, [pc, #188]	@ (8001de4 <UART4_IRQHandler+0x16c>)
 8001d26:	681b      	ldr	r3, [r3, #0]
 8001d28:	f8d3 30cc 	ldr.w	r3, [r3, #204]	@ 0xcc
 8001d2c:	2b00      	cmp	r3, #0
 8001d2e:	d00a      	beq.n	8001d46 <UART4_IRQHandler+0xce>
 8001d30:	4b2c      	ldr	r3, [pc, #176]	@ (8001de4 <UART4_IRQHandler+0x16c>)
 8001d32:	681b      	ldr	r3, [r3, #0]
 8001d34:	f8d3 30cc 	ldr.w	r3, [r3, #204]	@ 0xcc
 8001d38:	4798      	blx	r3
 8001d3a:	4b28      	ldr	r3, [pc, #160]	@ (8001ddc <UART4_IRQHandler+0x164>)
 8001d3c:	681b      	ldr	r3, [r3, #0]
 8001d3e:	4a27      	ldr	r2, [pc, #156]	@ (8001ddc <UART4_IRQHandler+0x164>)
 8001d40:	f023 0340 	bic.w	r3, r3, #64	@ 0x40
 8001d44:	6013      	str	r3, [r2, #0]
 8001d46:	4b26      	ldr	r3, [pc, #152]	@ (8001de0 <UART4_IRQHandler+0x168>)
 8001d48:	881b      	ldrh	r3, [r3, #0]
 8001d4a:	b29b      	uxth	r3, r3
 8001d4c:	f003 0320 	and.w	r3, r3, #32
 8001d50:	2b00      	cmp	r3, #0
 8001d52:	d010      	beq.n	8001d76 <UART4_IRQHandler+0xfe>
 8001d54:	4b23      	ldr	r3, [pc, #140]	@ (8001de4 <UART4_IRQHandler+0x16c>)
 8001d56:	681b      	ldr	r3, [r3, #0]
 8001d58:	f8d3 30d0 	ldr.w	r3, [r3, #208]	@ 0xd0
 8001d5c:	2b00      	cmp	r3, #0
 8001d5e:	d00a      	beq.n	8001d76 <UART4_IRQHandler+0xfe>
 8001d60:	4b20      	ldr	r3, [pc, #128]	@ (8001de4 <UART4_IRQHandler+0x16c>)
 8001d62:	681b      	ldr	r3, [r3, #0]
 8001d64:	f8d3 30d0 	ldr.w	r3, [r3, #208]	@ 0xd0
 8001d68:	4798      	blx	r3
 8001d6a:	4b1c      	ldr	r3, [pc, #112]	@ (8001ddc <UART4_IRQHandler+0x164>)
 8001d6c:	681b      	ldr	r3, [r3, #0]
 8001d6e:	4a1b      	ldr	r2, [pc, #108]	@ (8001ddc <UART4_IRQHandler+0x164>)
 8001d70:	f023 0320 	bic.w	r3, r3, #32
 8001d74:	6013      	str	r3, [r2, #0]
 8001d76:	4b1a      	ldr	r3, [pc, #104]	@ (8001de0 <UART4_IRQHandler+0x168>)
 8001d78:	881b      	ldrh	r3, [r3, #0]
 8001d7a:	b29b      	uxth	r3, r3
 8001d7c:	f003 0310 	and.w	r3, r3, #16
 8001d80:	2b00      	cmp	r3, #0
 8001d82:	d010      	beq.n	8001da6 <UART4_IRQHandler+0x12e>
 8001d84:	4b17      	ldr	r3, [pc, #92]	@ (8001de4 <UART4_IRQHandler+0x16c>)
 8001d86:	681b      	ldr	r3, [r3, #0]
 8001d88:	f8d3 30d4 	ldr.w	r3, [r3, #212]	@ 0xd4
 8001d8c:	2b00      	cmp	r3, #0
 8001d8e:	d00a      	beq.n	8001da6 <UART4_IRQHandler+0x12e>
 8001d90:	4b14      	ldr	r3, [pc, #80]	@ (8001de4 <UART4_IRQHandler+0x16c>)
 8001d92:	681b      	ldr	r3, [r3, #0]
 8001d94:	f8d3 30d4 	ldr.w	r3, [r3, #212]	@ 0xd4
 8001d98:	4798      	blx	r3
 8001d9a:	4b10      	ldr	r3, [pc, #64]	@ (8001ddc <UART4_IRQHandler+0x164>)
 8001d9c:	681b      	ldr	r3, [r3, #0]
 8001d9e:	4a0f      	ldr	r2, [pc, #60]	@ (8001ddc <UART4_IRQHandler+0x164>)
 8001da0:	f023 0310 	bic.w	r3, r3, #16
 8001da4:	6013      	str	r3, [r2, #0]
 8001da6:	4b0e      	ldr	r3, [pc, #56]	@ (8001de0 <UART4_IRQHandler+0x168>)
 8001da8:	881b      	ldrh	r3, [r3, #0]
 8001daa:	b29b      	uxth	r3, r3
 8001dac:	f003 0301 	and.w	r3, r3, #1
 8001db0:	2b00      	cmp	r3, #0
 8001db2:	d010      	beq.n	8001dd6 <UART4_IRQHandler+0x15e>
 8001db4:	4b0b      	ldr	r3, [pc, #44]	@ (8001de4 <UART4_IRQHandler+0x16c>)
 8001db6:	681b      	ldr	r3, [r3, #0]
 8001db8:	f8d3 30c4 	ldr.w	r3, [r3, #196]	@ 0xc4
 8001dbc:	2b00      	cmp	r3, #0
 8001dbe:	d00a      	beq.n	8001dd6 <UART4_IRQHandler+0x15e>
 8001dc0:	4b08      	ldr	r3, [pc, #32]	@ (8001de4 <UART4_IRQHandler+0x16c>)
 8001dc2:	681b      	ldr	r3, [r3, #0]
 8001dc4:	f8d3 30c4 	ldr.w	r3, [r3, #196]	@ 0xc4
 8001dc8:	4798      	blx	r3
 8001dca:	4b04      	ldr	r3, [pc, #16]	@ (8001ddc <UART4_IRQHandler+0x164>)
 8001dcc:	681b      	ldr	r3, [r3, #0]
 8001dce:	4a03      	ldr	r2, [pc, #12]	@ (8001ddc <UART4_IRQHandler+0x164>)
 8001dd0:	f023 0301 	bic.w	r3, r3, #1
 8001dd4:	6013      	str	r3, [r2, #0]
 8001dd6:	bf00      	nop
 8001dd8:	bd80      	pop	{r7, pc}
 8001dda:	bf00      	nop
 8001ddc:	40004c00 	.word	0x40004c00
 8001de0:	200000b0 	.word	0x200000b0
 8001de4:	200000ac 	.word	0x200000ac

08001de8 <USART1_IRQHandler>:
 8001de8:	b580      	push	{r7, lr}
 8001dea:	af00      	add	r7, sp, #0
 8001dec:	4b57      	ldr	r3, [pc, #348]	@ (8001f4c <USART1_IRQHandler+0x164>)
 8001dee:	681b      	ldr	r3, [r3, #0]
 8001df0:	b29a      	uxth	r2, r3
 8001df2:	4b57      	ldr	r3, [pc, #348]	@ (8001f50 <USART1_IRQHandler+0x168>)
 8001df4:	801a      	strh	r2, [r3, #0]
 8001df6:	4b56      	ldr	r3, [pc, #344]	@ (8001f50 <USART1_IRQHandler+0x168>)
 8001df8:	881b      	ldrh	r3, [r3, #0]
 8001dfa:	b29b      	uxth	r3, r3
 8001dfc:	f403 7300 	and.w	r3, r3, #512	@ 0x200
 8001e00:	2b00      	cmp	r3, #0
 8001e02:	d010      	beq.n	8001e26 <USART1_IRQHandler+0x3e>
 8001e04:	4b53      	ldr	r3, [pc, #332]	@ (8001f54 <USART1_IRQHandler+0x16c>)
 8001e06:	681b      	ldr	r3, [r3, #0]
 8001e08:	f8d3 30d8 	ldr.w	r3, [r3, #216]	@ 0xd8
 8001e0c:	2b00      	cmp	r3, #0
 8001e0e:	d00a      	beq.n	8001e26 <USART1_IRQHandler+0x3e>
 8001e10:	4b50      	ldr	r3, [pc, #320]	@ (8001f54 <USART1_IRQHandler+0x16c>)
 8001e12:	681b      	ldr	r3, [r3, #0]
 8001e14:	f8d3 30d8 	ldr.w	r3, [r3, #216]	@ 0xd8
 8001e18:	4798      	blx	r3
 8001e1a:	4b4c      	ldr	r3, [pc, #304]	@ (8001f4c <USART1_IRQHandler+0x164>)
 8001e1c:	681b      	ldr	r3, [r3, #0]
 8001e1e:	4a4b      	ldr	r2, [pc, #300]	@ (8001f4c <USART1_IRQHandler+0x164>)
 8001e20:	f423 7300 	bic.w	r3, r3, #512	@ 0x200
 8001e24:	6013      	str	r3, [r2, #0]
 8001e26:	4b4a      	ldr	r3, [pc, #296]	@ (8001f50 <USART1_IRQHandler+0x168>)
 8001e28:	881b      	ldrh	r3, [r3, #0]
 8001e2a:	b29b      	uxth	r3, r3
 8001e2c:	f403 7380 	and.w	r3, r3, #256	@ 0x100
 8001e30:	2b00      	cmp	r3, #0
 8001e32:	d010      	beq.n	8001e56 <USART1_IRQHandler+0x6e>
 8001e34:	4b47      	ldr	r3, [pc, #284]	@ (8001f54 <USART1_IRQHandler+0x16c>)
 8001e36:	681b      	ldr	r3, [r3, #0]
 8001e38:	f8d3 30e0 	ldr.w	r3, [r3, #224]	@ 0xe0
 8001e3c:	2b00      	cmp	r3, #0
 8001e3e:	d00a      	beq.n	8001e56 <USART1_IRQHandler+0x6e>
 8001e40:	4b44      	ldr	r3, [pc, #272]	@ (8001f54 <USART1_IRQHandler+0x16c>)
 8001e42:	681b      	ldr	r3, [r3, #0]
 8001e44:	f8d3 30e0 	ldr.w	r3, [r3, #224]	@ 0xe0
 8001e48:	4798      	blx	r3
 8001e4a:	4b40      	ldr	r3, [pc, #256]	@ (8001f4c <USART1_IRQHandler+0x164>)
 8001e4c:	681b      	ldr	r3, [r3, #0]
 8001e4e:	4a3f      	ldr	r2, [pc, #252]	@ (8001f4c <USART1_IRQHandler+0x164>)
 8001e50:	f423 7380 	bic.w	r3, r3, #256	@ 0x100
 8001e54:	6013      	str	r3, [r2, #0]
 8001e56:	4b3e      	ldr	r3, [pc, #248]	@ (8001f50 <USART1_IRQHandler+0x168>)
 8001e58:	881b      	ldrh	r3, [r3, #0]
 8001e5a:	b29b      	uxth	r3, r3
 8001e5c:	f003 0380 	and.w	r3, r3, #128	@ 0x80
 8001e60:	2b00      	cmp	r3, #0
 8001e62:	d010      	beq.n	8001e86 <USART1_IRQHandler+0x9e>
 8001e64:	4b3b      	ldr	r3, [pc, #236]	@ (8001f54 <USART1_IRQHandler+0x16c>)
 8001e66:	681b      	ldr	r3, [r3, #0]
 8001e68:	f8d3 30c8 	ldr.w	r3, [r3, #200]	@ 0xc8
 8001e6c:	2b00      	cmp	r3, #0
 8001e6e:	d00a      	beq.n	8001e86 <USART1_IRQHandler+0x9e>
 8001e70:	4b38      	ldr	r3, [pc, #224]	@ (8001f54 <USART1_IRQHandler+0x16c>)
 8001e72:	681b      	ldr	r3, [r3, #0]
 8001e74:	f8d3 30c8 	ldr.w	r3, [r3, #200]	@ 0xc8
 8001e78:	4798      	blx	r3
 8001e7a:	4b34      	ldr	r3, [pc, #208]	@ (8001f4c <USART1_IRQHandler+0x164>)
 8001e7c:	681b      	ldr	r3, [r3, #0]
 8001e7e:	4a33      	ldr	r2, [pc, #204]	@ (8001f4c <USART1_IRQHandler+0x164>)
 8001e80:	f023 0380 	bic.w	r3, r3, #128	@ 0x80
 8001e84:	6013      	str	r3, [r2, #0]
 8001e86:	4b32      	ldr	r3, [pc, #200]	@ (8001f50 <USART1_IRQHandler+0x168>)
 8001e88:	881b      	ldrh	r3, [r3, #0]
 8001e8a:	b29b      	uxth	r3, r3
 8001e8c:	f003 0340 	and.w	r3, r3, #64	@ 0x40
 8001e90:	2b00      	cmp	r3, #0
 8001e92:	d010      	beq.n	8001eb6 <USART1_IRQHandler+0xce>
 8001e94:	4b2f      	ldr	r3, [pc, #188]	@ (8001f54 <USART1_IRQHandler+0x16c>)
 8001e96:	681b      	ldr	r3, [r3, #0]
 8001e98:	f8d3 30cc 	ldr.w	r3, [r3, #204]	@ 0xcc
 8001e9c:	2b00      	cmp	r3, #0
 8001e9e:	d00a      	beq.n	8001eb6 <USART1_IRQHandler+0xce>
 8001ea0:	4b2c      	ldr	r3, [pc, #176]	@ (8001f54 <USART1_IRQHandler+0x16c>)
 8001ea2:	681b      	ldr	r3, [r3, #0]
 8001ea4:	f8d3 30cc 	ldr.w	r3, [r3, #204]	@ 0xcc
 8001ea8:	4798      	blx	r3
 8001eaa:	4b28      	ldr	r3, [pc, #160]	@ (8001f4c <USART1_IRQHandler+0x164>)
 8001eac:	681b      	ldr	r3, [r3, #0]
 8001eae:	4a27      	ldr	r2, [pc, #156]	@ (8001f4c <USART1_IRQHandler+0x164>)
 8001eb0:	f023 0340 	bic.w	r3, r3, #64	@ 0x40
 8001eb4:	6013      	str	r3, [r2, #0]
 8001eb6:	4b26      	ldr	r3, [pc, #152]	@ (8001f50 <USART1_IRQHandler+0x168>)
 8001eb8:	881b      	ldrh	r3, [r3, #0]
 8001eba:	b29b      	uxth	r3, r3
 8001ebc:	f003 0320 	and.w	r3, r3, #32
 8001ec0:	2b00      	cmp	r3, #0
 8001ec2:	d010      	beq.n	8001ee6 <USART1_IRQHandler+0xfe>
 8001ec4:	4b23      	ldr	r3, [pc, #140]	@ (8001f54 <USART1_IRQHandler+0x16c>)
 8001ec6:	681b      	ldr	r3, [r3, #0]
 8001ec8:	f8d3 30d0 	ldr.w	r3, [r3, #208]	@ 0xd0
 8001ecc:	2b00      	cmp	r3, #0
 8001ece:	d00a      	beq.n	8001ee6 <USART1_IRQHandler+0xfe>
 8001ed0:	4b20      	ldr	r3, [pc, #128]	@ (8001f54 <USART1_IRQHandler+0x16c>)
 8001ed2:	681b      	ldr	r3, [r3, #0]
 8001ed4:	f8d3 30d0 	ldr.w	r3, [r3, #208]	@ 0xd0
 8001ed8:	4798      	blx	r3
 8001eda:	4b1c      	ldr	r3, [pc, #112]	@ (8001f4c <USART1_IRQHandler+0x164>)
 8001edc:	681b      	ldr	r3, [r3, #0]
 8001ede:	4a1b      	ldr	r2, [pc, #108]	@ (8001f4c <USART1_IRQHandler+0x164>)
 8001ee0:	f023 0320 	bic.w	r3, r3, #32
 8001ee4:	6013      	str	r3, [r2, #0]
 8001ee6:	4b1a      	ldr	r3, [pc, #104]	@ (8001f50 <USART1_IRQHandler+0x168>)
 8001ee8:	881b      	ldrh	r3, [r3, #0]
 8001eea:	b29b      	uxth	r3, r3
 8001eec:	f003 0310 	and.w	r3, r3, #16
 8001ef0:	2b00      	cmp	r3, #0
 8001ef2:	d010      	beq.n	8001f16 <USART1_IRQHandler+0x12e>
 8001ef4:	4b17      	ldr	r3, [pc, #92]	@ (8001f54 <USART1_IRQHandler+0x16c>)
 8001ef6:	681b      	ldr	r3, [r3, #0]
 8001ef8:	f8d3 30d4 	ldr.w	r3, [r3, #212]	@ 0xd4
 8001efc:	2b00      	cmp	r3, #0
 8001efe:	d00a      	beq.n	8001f16 <USART1_IRQHandler+0x12e>
 8001f00:	4b14      	ldr	r3, [pc, #80]	@ (8001f54 <USART1_IRQHandler+0x16c>)
 8001f02:	681b      	ldr	r3, [r3, #0]
 8001f04:	f8d3 30d4 	ldr.w	r3, [r3, #212]	@ 0xd4
 8001f08:	4798      	blx	r3
 8001f0a:	4b10      	ldr	r3, [pc, #64]	@ (8001f4c <USART1_IRQHandler+0x164>)
 8001f0c:	681b      	ldr	r3, [r3, #0]
 8001f0e:	4a0f      	ldr	r2, [pc, #60]	@ (8001f4c <USART1_IRQHandler+0x164>)
 8001f10:	f023 0310 	bic.w	r3, r3, #16
 8001f14:	6013      	str	r3, [r2, #0]
 8001f16:	4b0e      	ldr	r3, [pc, #56]	@ (8001f50 <USART1_IRQHandler+0x168>)
 8001f18:	881b      	ldrh	r3, [r3, #0]
 8001f1a:	b29b      	uxth	r3, r3
 8001f1c:	f003 0301 	and.w	r3, r3, #1
 8001f20:	2b00      	cmp	r3, #0
 8001f22:	d010      	beq.n	8001f46 <USART1_IRQHandler+0x15e>
 8001f24:	4b0b      	ldr	r3, [pc, #44]	@ (8001f54 <USART1_IRQHandler+0x16c>)
 8001f26:	681b      	ldr	r3, [r3, #0]
 8001f28:	f8d3 30c4 	ldr.w	r3, [r3, #196]	@ 0xc4
 8001f2c:	2b00      	cmp	r3, #0
 8001f2e:	d00a      	beq.n	8001f46 <USART1_IRQHandler+0x15e>
 8001f30:	4b08      	ldr	r3, [pc, #32]	@ (8001f54 <USART1_IRQHandler+0x16c>)
 8001f32:	681b      	ldr	r3, [r3, #0]
 8001f34:	f8d3 30c4 	ldr.w	r3, [r3, #196]	@ 0xc4
 8001f38:	4798      	blx	r3
 8001f3a:	4b04      	ldr	r3, [pc, #16]	@ (8001f4c <USART1_IRQHandler+0x164>)
 8001f3c:	681b      	ldr	r3, [r3, #0]
 8001f3e:	4a03      	ldr	r2, [pc, #12]	@ (8001f4c <USART1_IRQHandler+0x164>)
 8001f40:	f023 0301 	bic.w	r3, r3, #1
 8001f44:	6013      	str	r3, [r2, #0]
 8001f46:	bf00      	nop
 8001f48:	bd80      	pop	{r7, pc}
 8001f4a:	bf00      	nop
 8001f4c:	40011000 	.word	0x40011000
 8001f50:	200000b0 	.word	0x200000b0
 8001f54:	200000a8 	.word	0x200000a8

08001f58 <__NVIC_SetPriority>:
 8001f58:	b480      	push	{r7}
 8001f5a:	b083      	sub	sp, #12
 8001f5c:	af00      	add	r7, sp, #0
 8001f5e:	4603      	mov	r3, r0
 8001f60:	6039      	str	r1, [r7, #0]
 8001f62:	71fb      	strb	r3, [r7, #7]
 8001f64:	f997 3007 	ldrsb.w	r3, [r7, #7]
 8001f68:	2b00      	cmp	r3, #0
 8001f6a:	db0a      	blt.n	8001f82 <__NVIC_SetPriority+0x2a>
 8001f6c:	683b      	ldr	r3, [r7, #0]
 8001f6e:	b2da      	uxtb	r2, r3
 8001f70:	490c      	ldr	r1, [pc, #48]	@ (8001fa4 <__NVIC_SetPriority+0x4c>)
 8001f72:	f997 3007 	ldrsb.w	r3, [r7, #7]
 8001f76:	0112      	lsls	r2, r2, #4
 8001f78:	b2d2      	uxtb	r2, r2
 8001f7a:	440b      	add	r3, r1
 8001f7c:	f883 2300 	strb.w	r2, [r3, #768]	@ 0x300
 8001f80:	e00a      	b.n	8001f98 <__NVIC_SetPriority+0x40>
 8001f82:	683b      	ldr	r3, [r7, #0]
 8001f84:	b2da      	uxtb	r2, r3
 8001f86:	4908      	ldr	r1, [pc, #32]	@ (8001fa8 <__NVIC_SetPriority+0x50>)
 8001f88:	79fb      	ldrb	r3, [r7, #7]
 8001f8a:	f003 030f 	and.w	r3, r3, #15
 8001f8e:	3b04      	subs	r3, #4
 8001f90:	0112      	lsls	r2, r2, #4
 8001f92:	b2d2      	uxtb	r2, r2
 8001f94:	440b      	add	r3, r1
 8001f96:	761a      	strb	r2, [r3, #24]
 8001f98:	bf00      	nop
 8001f9a:	370c      	adds	r7, #12
 8001f9c:	46bd      	mov	sp, r7
 8001f9e:	f85d 7b04 	ldr.w	r7, [sp], #4
 8001fa2:	4770      	bx	lr
 8001fa4:	e000e100 	.word	0xe000e100
 8001fa8:	e000ed00 	.word	0xe000ed00

08001fac <SysTick_Config>:
 8001fac:	b580      	push	{r7, lr}
 8001fae:	b082      	sub	sp, #8
 8001fb0:	af00      	add	r7, sp, #0
 8001fb2:	6078      	str	r0, [r7, #4]
 8001fb4:	687b      	ldr	r3, [r7, #4]
 8001fb6:	3b01      	subs	r3, #1
 8001fb8:	f1b3 7f80 	cmp.w	r3, #16777216	@ 0x1000000
 8001fbc:	d301      	bcc.n	8001fc2 <SysTick_Config+0x16>
 8001fbe:	2301      	movs	r3, #1
 8001fc0:	e00f      	b.n	8001fe2 <SysTick_Config+0x36>
 8001fc2:	4a0a      	ldr	r2, [pc, #40]	@ (8001fec <SysTick_Config+0x40>)
 8001fc4:	687b      	ldr	r3, [r7, #4]
 8001fc6:	3b01      	subs	r3, #1
 8001fc8:	6053      	str	r3, [r2, #4]
 8001fca:	210f      	movs	r1, #15
 8001fcc:	f04f 30ff 	mov.w	r0, #4294967295
 8001fd0:	f7ff ffc2 	bl	8001f58 <__NVIC_SetPriority>
 8001fd4:	4b05      	ldr	r3, [pc, #20]	@ (8001fec <SysTick_Config+0x40>)
 8001fd6:	2200      	movs	r2, #0
 8001fd8:	609a      	str	r2, [r3, #8]
 8001fda:	4b04      	ldr	r3, [pc, #16]	@ (8001fec <SysTick_Config+0x40>)
 8001fdc:	2207      	movs	r2, #7
 8001fde:	601a      	str	r2, [r3, #0]
 8001fe0:	2300      	movs	r3, #0
 8001fe2:	4618      	mov	r0, r3
 8001fe4:	3708      	adds	r7, #8
 8001fe6:	46bd      	mov	sp, r7
 8001fe8:	bd80      	pop	{r7, pc}
 8001fea:	bf00      	nop
 8001fec:	e000e010 	.word	0xe000e010

08001ff0 <MCU_Clock_Setup>:
 8001ff0:	b580      	push	{r7, lr}
 8001ff2:	b082      	sub	sp, #8
 8001ff4:	af00      	add	r7, sp, #0
 8001ff6:	f000 f923 	bl	8002240 <SystemInit>
 8001ffa:	2308      	movs	r3, #8
 8001ffc:	71fb      	strb	r3, [r7, #7]
 8001ffe:	f44f 73a8 	mov.w	r3, #336	@ 0x150
 8002002:	80bb      	strh	r3, [r7, #4]
 8002004:	2300      	movs	r3, #0
 8002006:	70fb      	strb	r3, [r7, #3]
 8002008:	2307      	movs	r3, #7
 800200a:	70bb      	strb	r3, [r7, #2]
 800200c:	4b3c      	ldr	r3, [pc, #240]	@ (8002100 <MCU_Clock_Setup+0x110>)
 800200e:	2200      	movs	r2, #0
 8002010:	605a      	str	r2, [r3, #4]
 8002012:	4b3b      	ldr	r3, [pc, #236]	@ (8002100 <MCU_Clock_Setup+0x110>)
 8002014:	681b      	ldr	r3, [r3, #0]
 8002016:	4a3a      	ldr	r2, [pc, #232]	@ (8002100 <MCU_Clock_Setup+0x110>)
 8002018:	f443 3380 	orr.w	r3, r3, #65536	@ 0x10000
 800201c:	6013      	str	r3, [r2, #0]
 800201e:	bf00      	nop
 8002020:	4b37      	ldr	r3, [pc, #220]	@ (8002100 <MCU_Clock_Setup+0x110>)
 8002022:	681b      	ldr	r3, [r3, #0]
 8002024:	f403 3300 	and.w	r3, r3, #131072	@ 0x20000
 8002028:	2b00      	cmp	r3, #0
 800202a:	d0f9      	beq.n	8002020 <MCU_Clock_Setup+0x30>
 800202c:	4b34      	ldr	r3, [pc, #208]	@ (8002100 <MCU_Clock_Setup+0x110>)
 800202e:	6c1b      	ldr	r3, [r3, #64]	@ 0x40
 8002030:	4a33      	ldr	r2, [pc, #204]	@ (8002100 <MCU_Clock_Setup+0x110>)
 8002032:	f043 5380 	orr.w	r3, r3, #268435456	@ 0x10000000
 8002036:	6413      	str	r3, [r2, #64]	@ 0x40
 8002038:	4b32      	ldr	r3, [pc, #200]	@ (8002104 <MCU_Clock_Setup+0x114>)
 800203a:	681b      	ldr	r3, [r3, #0]
 800203c:	4a31      	ldr	r2, [pc, #196]	@ (8002104 <MCU_Clock_Setup+0x114>)
 800203e:	f443 4380 	orr.w	r3, r3, #16384	@ 0x4000
 8002042:	6013      	str	r3, [r2, #0]
 8002044:	4b30      	ldr	r3, [pc, #192]	@ (8002108 <MCU_Clock_Setup+0x118>)
 8002046:	681b      	ldr	r3, [r3, #0]
 8002048:	4a2f      	ldr	r2, [pc, #188]	@ (8002108 <MCU_Clock_Setup+0x118>)
 800204a:	f443 63e0 	orr.w	r3, r3, #1792	@ 0x700
 800204e:	f043 0305 	orr.w	r3, r3, #5
 8002052:	6013      	str	r3, [r2, #0]
 8002054:	4b2a      	ldr	r3, [pc, #168]	@ (8002100 <MCU_Clock_Setup+0x110>)
 8002056:	685b      	ldr	r3, [r3, #4]
 8002058:	78ba      	ldrb	r2, [r7, #2]
 800205a:	0611      	lsls	r1, r2, #24
 800205c:	78fa      	ldrb	r2, [r7, #3]
 800205e:	0412      	lsls	r2, r2, #16
 8002060:	4311      	orrs	r1, r2
 8002062:	88ba      	ldrh	r2, [r7, #4]
 8002064:	0192      	lsls	r2, r2, #6
 8002066:	4311      	orrs	r1, r2
 8002068:	79fa      	ldrb	r2, [r7, #7]
 800206a:	430a      	orrs	r2, r1
 800206c:	4611      	mov	r1, r2
 800206e:	4a24      	ldr	r2, [pc, #144]	@ (8002100 <MCU_Clock_Setup+0x110>)
 8002070:	430b      	orrs	r3, r1
 8002072:	6053      	str	r3, [r2, #4]
 8002074:	4b22      	ldr	r3, [pc, #136]	@ (8002100 <MCU_Clock_Setup+0x110>)
 8002076:	685b      	ldr	r3, [r3, #4]
 8002078:	4a21      	ldr	r2, [pc, #132]	@ (8002100 <MCU_Clock_Setup+0x110>)
 800207a:	f443 0380 	orr.w	r3, r3, #4194304	@ 0x400000
 800207e:	6053      	str	r3, [r2, #4]
 8002080:	4b1f      	ldr	r3, [pc, #124]	@ (8002100 <MCU_Clock_Setup+0x110>)
 8002082:	4a1f      	ldr	r2, [pc, #124]	@ (8002100 <MCU_Clock_Setup+0x110>)
 8002084:	689b      	ldr	r3, [r3, #8]
 8002086:	6093      	str	r3, [r2, #8]
 8002088:	4b1d      	ldr	r3, [pc, #116]	@ (8002100 <MCU_Clock_Setup+0x110>)
 800208a:	689b      	ldr	r3, [r3, #8]
 800208c:	4a1c      	ldr	r2, [pc, #112]	@ (8002100 <MCU_Clock_Setup+0x110>)
 800208e:	f443 53a0 	orr.w	r3, r3, #5120	@ 0x1400
 8002092:	6093      	str	r3, [r2, #8]
 8002094:	4b1a      	ldr	r3, [pc, #104]	@ (8002100 <MCU_Clock_Setup+0x110>)
 8002096:	689b      	ldr	r3, [r3, #8]
 8002098:	4a19      	ldr	r2, [pc, #100]	@ (8002100 <MCU_Clock_Setup+0x110>)
 800209a:	f443 4300 	orr.w	r3, r3, #32768	@ 0x8000
 800209e:	6093      	str	r3, [r2, #8]
 80020a0:	4b17      	ldr	r3, [pc, #92]	@ (8002100 <MCU_Clock_Setup+0x110>)
 80020a2:	681b      	ldr	r3, [r3, #0]
 80020a4:	4a16      	ldr	r2, [pc, #88]	@ (8002100 <MCU_Clock_Setup+0x110>)
 80020a6:	f043 7380 	orr.w	r3, r3, #16777216	@ 0x1000000
 80020aa:	6013      	str	r3, [r2, #0]
 80020ac:	bf00      	nop
 80020ae:	4b14      	ldr	r3, [pc, #80]	@ (8002100 <MCU_Clock_Setup+0x110>)
 80020b0:	681b      	ldr	r3, [r3, #0]
 80020b2:	f003 7300 	and.w	r3, r3, #33554432	@ 0x2000000
 80020b6:	2b00      	cmp	r3, #0
 80020b8:	d0f9      	beq.n	80020ae <MCU_Clock_Setup+0xbe>
 80020ba:	4b11      	ldr	r3, [pc, #68]	@ (8002100 <MCU_Clock_Setup+0x110>)
 80020bc:	689b      	ldr	r3, [r3, #8]
 80020be:	4a10      	ldr	r2, [pc, #64]	@ (8002100 <MCU_Clock_Setup+0x110>)
 80020c0:	f043 0302 	orr.w	r3, r3, #2
 80020c4:	6093      	str	r3, [r2, #8]
 80020c6:	bf00      	nop
 80020c8:	4b0d      	ldr	r3, [pc, #52]	@ (8002100 <MCU_Clock_Setup+0x110>)
 80020ca:	689b      	ldr	r3, [r3, #8]
 80020cc:	f003 0308 	and.w	r3, r3, #8
 80020d0:	2b08      	cmp	r3, #8
 80020d2:	d1f9      	bne.n	80020c8 <MCU_Clock_Setup+0xd8>
 80020d4:	f000 f8c6 	bl	8002264 <SystemCoreClockUpdate>
 80020d8:	4b0c      	ldr	r3, [pc, #48]	@ (800210c <MCU_Clock_Setup+0x11c>)
 80020da:	681b      	ldr	r3, [r3, #0]
 80020dc:	08db      	lsrs	r3, r3, #3
 80020de:	4a0c      	ldr	r2, [pc, #48]	@ (8002110 <MCU_Clock_Setup+0x120>)
 80020e0:	fba2 2303 	umull	r2, r3, r2, r3
 80020e4:	085b      	lsrs	r3, r3, #1
 80020e6:	4618      	mov	r0, r3
 80020e8:	f7ff ff60 	bl	8001fac <SysTick_Config>
 80020ec:	4b04      	ldr	r3, [pc, #16]	@ (8002100 <MCU_Clock_Setup+0x110>)
 80020ee:	6c5b      	ldr	r3, [r3, #68]	@ 0x44
 80020f0:	4a03      	ldr	r2, [pc, #12]	@ (8002100 <MCU_Clock_Setup+0x110>)
 80020f2:	f443 4380 	orr.w	r3, r3, #16384	@ 0x4000
 80020f6:	6453      	str	r3, [r2, #68]	@ 0x44
 80020f8:	bf00      	nop
 80020fa:	3708      	adds	r7, #8
 80020fc:	46bd      	mov	sp, r7
 80020fe:	bd80      	pop	{r7, pc}
 8002100:	40023800 	.word	0x40023800
 8002104:	40007000 	.word	0x40007000
 8002108:	40023c00 	.word	0x40023c00
 800210c:	20000000 	.word	0x20000000
 8002110:	18618619 	.word	0x18618619

08002114 <Delay_Config>:
 8002114:	b480      	push	{r7}
 8002116:	af00      	add	r7, sp, #0
 8002118:	4b09      	ldr	r3, [pc, #36]	@ (8002140 <Delay_Config+0x2c>)
 800211a:	2200      	movs	r2, #0
 800211c:	601a      	str	r2, [r3, #0]
 800211e:	4b08      	ldr	r3, [pc, #32]	@ (8002140 <Delay_Config+0x2c>)
 8002120:	f06f 427f 	mvn.w	r2, #4278190080	@ 0xff000000
 8002124:	605a      	str	r2, [r3, #4]
 8002126:	4b06      	ldr	r3, [pc, #24]	@ (8002140 <Delay_Config+0x2c>)
 8002128:	2200      	movs	r2, #0
 800212a:	609a      	str	r2, [r3, #8]
 800212c:	4b04      	ldr	r3, [pc, #16]	@ (8002140 <Delay_Config+0x2c>)
 800212e:	2205      	movs	r2, #5
 8002130:	601a      	str	r2, [r3, #0]
 8002132:	2300      	movs	r3, #0
 8002134:	4618      	mov	r0, r3
 8002136:	46bd      	mov	sp, r7
 8002138:	f85d 7b04 	ldr.w	r7, [sp], #4
 800213c:	4770      	bx	lr
 800213e:	bf00      	nop
 8002140:	e000e010 	.word	0xe000e010

08002144 <Delay_ms>:
 8002144:	b480      	push	{r7}
 8002146:	b085      	sub	sp, #20
 8002148:	af00      	add	r7, sp, #0
 800214a:	ed87 0a01 	vstr	s0, [r7, #4]
 800214e:	edd7 7a01 	vldr	s15, [r7, #4]
 8002152:	ed9f 7a11 	vldr	s14, [pc, #68]	@ 8002198 <Delay_ms+0x54>
 8002156:	ee67 7a87 	vmul.f32	s15, s15, s14
 800215a:	eefc 7ae7 	vcvt.u32.f32	s15, s15
 800215e:	ee17 3a90 	vmov	r3, s15
 8002162:	60fb      	str	r3, [r7, #12]
 8002164:	4a0d      	ldr	r2, [pc, #52]	@ (800219c <Delay_ms+0x58>)
 8002166:	68fb      	ldr	r3, [r7, #12]
 8002168:	6053      	str	r3, [r2, #4]
 800216a:	4b0c      	ldr	r3, [pc, #48]	@ (800219c <Delay_ms+0x58>)
 800216c:	2200      	movs	r2, #0
 800216e:	609a      	str	r2, [r3, #8]
 8002170:	4b0a      	ldr	r3, [pc, #40]	@ (800219c <Delay_ms+0x58>)
 8002172:	681b      	ldr	r3, [r3, #0]
 8002174:	4a09      	ldr	r2, [pc, #36]	@ (800219c <Delay_ms+0x58>)
 8002176:	f043 0301 	orr.w	r3, r3, #1
 800217a:	6013      	str	r3, [r2, #0]
 800217c:	bf00      	nop
 800217e:	4b07      	ldr	r3, [pc, #28]	@ (800219c <Delay_ms+0x58>)
 8002180:	681b      	ldr	r3, [r3, #0]
 8002182:	f403 3380 	and.w	r3, r3, #65536	@ 0x10000
 8002186:	2b00      	cmp	r3, #0
 8002188:	d0f9      	beq.n	800217e <Delay_ms+0x3a>
 800218a:	2300      	movs	r3, #0
 800218c:	4618      	mov	r0, r3
 800218e:	3714      	adds	r7, #20
 8002190:	46bd      	mov	sp, r7
 8002192:	f85d 7b04 	ldr.w	r7, [sp], #4
 8002196:	4770      	bx	lr
 8002198:	48241000 	.word	0x48241000
 800219c:	e000e010 	.word	0xe000e010

080021a0 <Delay_s>:
 80021a0:	b580      	push	{r7, lr}
 80021a2:	b082      	sub	sp, #8
 80021a4:	af00      	add	r7, sp, #0
 80021a6:	6078      	str	r0, [r7, #4]
 80021a8:	687b      	ldr	r3, [r7, #4]
 80021aa:	f44f 727a 	mov.w	r2, #1000	@ 0x3e8
 80021ae:	fb02 f303 	mul.w	r3, r2, r3
 80021b2:	607b      	str	r3, [r7, #4]
 80021b4:	e006      	b.n	80021c4 <Delay_s+0x24>
 80021b6:	eeb7 0a00 	vmov.f32	s0, #112	@ 0x3f800000  1.0
 80021ba:	f7ff ffc3 	bl	8002144 <Delay_ms>
 80021be:	687b      	ldr	r3, [r7, #4]
 80021c0:	3b01      	subs	r3, #1
 80021c2:	607b      	str	r3, [r7, #4]
 80021c4:	687b      	ldr	r3, [r7, #4]
 80021c6:	2b00      	cmp	r3, #0
 80021c8:	d1f5      	bne.n	80021b6 <Delay_s+0x16>
 80021ca:	2300      	movs	r3, #0
 80021cc:	4618      	mov	r0, r3
 80021ce:	3708      	adds	r7, #8
 80021d0:	46bd      	mov	sp, r7
 80021d2:	bd80      	pop	{r7, pc}

080021d4 <GPIO_Pin_Low>:
 80021d4:	b480      	push	{r7}
 80021d6:	b083      	sub	sp, #12
 80021d8:	af00      	add	r7, sp, #0
 80021da:	6078      	str	r0, [r7, #4]
 80021dc:	6039      	str	r1, [r7, #0]
 80021de:	687b      	ldr	r3, [r7, #4]
 80021e0:	695b      	ldr	r3, [r3, #20]
 80021e2:	2101      	movs	r1, #1
 80021e4:	683a      	ldr	r2, [r7, #0]
 80021e6:	fa01 f202 	lsl.w	r2, r1, r2
 80021ea:	43d2      	mvns	r2, r2
 80021ec:	401a      	ands	r2, r3
 80021ee:	687b      	ldr	r3, [r7, #4]
 80021f0:	615a      	str	r2, [r3, #20]
 80021f2:	bf00      	nop
 80021f4:	370c      	adds	r7, #12
 80021f6:	46bd      	mov	sp, r7
 80021f8:	f85d 7b04 	ldr.w	r7, [sp], #4
 80021fc:	4770      	bx	lr

080021fe <GPIO_Pin_High>:
 80021fe:	b480      	push	{r7}
 8002200:	b083      	sub	sp, #12
 8002202:	af00      	add	r7, sp, #0
 8002204:	6078      	str	r0, [r7, #4]
 8002206:	6039      	str	r1, [r7, #0]
 8002208:	687b      	ldr	r3, [r7, #4]
 800220a:	695b      	ldr	r3, [r3, #20]
 800220c:	2101      	movs	r1, #1
 800220e:	683a      	ldr	r2, [r7, #0]
 8002210:	fa01 f202 	lsl.w	r2, r1, r2
 8002214:	431a      	orrs	r2, r3
 8002216:	687b      	ldr	r3, [r7, #4]
 8002218:	615a      	str	r2, [r3, #20]
 800221a:	bf00      	nop
 800221c:	370c      	adds	r7, #12
 800221e:	46bd      	mov	sp, r7
 8002220:	f85d 7b04 	ldr.w	r7, [sp], #4
 8002224:	4770      	bx	lr

08002226 <main>:
 8002226:	b580      	push	{r7, lr}
 8002228:	af00      	add	r7, sp, #0
 800222a:	f7ff fee1 	bl	8001ff0 <MCU_Clock_Setup>
 800222e:	f7ff ff71 	bl	8002114 <Delay_Config>
 8002232:	f7fd ffc9 	bl	80001c8 <CRC_Init>
 8002236:	f005 fee3 	bl	8008000 <Blink_App>
 800223a:	2300      	movs	r3, #0
 800223c:	4618      	mov	r0, r3
 800223e:	bd80      	pop	{r7, pc}

08002240 <SystemInit>:
 8002240:	b480      	push	{r7}
 8002242:	af00      	add	r7, sp, #0
 8002244:	4b06      	ldr	r3, [pc, #24]	@ (8002260 <SystemInit+0x20>)
 8002246:	f8d3 3088 	ldr.w	r3, [r3, #136]	@ 0x88
 800224a:	4a05      	ldr	r2, [pc, #20]	@ (8002260 <SystemInit+0x20>)
 800224c:	f443 0370 	orr.w	r3, r3, #15728640	@ 0xf00000
 8002250:	f8c2 3088 	str.w	r3, [r2, #136]	@ 0x88
 8002254:	bf00      	nop
 8002256:	46bd      	mov	sp, r7
 8002258:	f85d 7b04 	ldr.w	r7, [sp], #4
 800225c:	4770      	bx	lr
 800225e:	bf00      	nop
 8002260:	e000ed00 	.word	0xe000ed00

08002264 <SystemCoreClockUpdate>:
 8002264:	b480      	push	{r7}
 8002266:	b087      	sub	sp, #28
 8002268:	af00      	add	r7, sp, #0
 800226a:	2300      	movs	r3, #0
 800226c:	613b      	str	r3, [r7, #16]
 800226e:	2300      	movs	r3, #0
 8002270:	617b      	str	r3, [r7, #20]
 8002272:	2302      	movs	r3, #2
 8002274:	60fb      	str	r3, [r7, #12]
 8002276:	2300      	movs	r3, #0
 8002278:	60bb      	str	r3, [r7, #8]
 800227a:	2302      	movs	r3, #2
 800227c:	607b      	str	r3, [r7, #4]
 800227e:	4b34      	ldr	r3, [pc, #208]	@ (8002350 <SystemCoreClockUpdate+0xec>)
 8002280:	689b      	ldr	r3, [r3, #8]
 8002282:	f003 030c 	and.w	r3, r3, #12
 8002286:	613b      	str	r3, [r7, #16]
 8002288:	693b      	ldr	r3, [r7, #16]
 800228a:	2b08      	cmp	r3, #8
 800228c:	d011      	beq.n	80022b2 <SystemCoreClockUpdate+0x4e>
 800228e:	693b      	ldr	r3, [r7, #16]
 8002290:	2b08      	cmp	r3, #8
 8002292:	d844      	bhi.n	800231e <SystemCoreClockUpdate+0xba>
 8002294:	693b      	ldr	r3, [r7, #16]
 8002296:	2b00      	cmp	r3, #0
 8002298:	d003      	beq.n	80022a2 <SystemCoreClockUpdate+0x3e>
 800229a:	693b      	ldr	r3, [r7, #16]
 800229c:	2b04      	cmp	r3, #4
 800229e:	d004      	beq.n	80022aa <SystemCoreClockUpdate+0x46>
 80022a0:	e03d      	b.n	800231e <SystemCoreClockUpdate+0xba>
 80022a2:	4b2c      	ldr	r3, [pc, #176]	@ (8002354 <SystemCoreClockUpdate+0xf0>)
 80022a4:	4a2c      	ldr	r2, [pc, #176]	@ (8002358 <SystemCoreClockUpdate+0xf4>)
 80022a6:	601a      	str	r2, [r3, #0]
 80022a8:	e03d      	b.n	8002326 <SystemCoreClockUpdate+0xc2>
 80022aa:	4b2a      	ldr	r3, [pc, #168]	@ (8002354 <SystemCoreClockUpdate+0xf0>)
 80022ac:	4a2b      	ldr	r2, [pc, #172]	@ (800235c <SystemCoreClockUpdate+0xf8>)
 80022ae:	601a      	str	r2, [r3, #0]
 80022b0:	e039      	b.n	8002326 <SystemCoreClockUpdate+0xc2>
 80022b2:	4b27      	ldr	r3, [pc, #156]	@ (8002350 <SystemCoreClockUpdate+0xec>)
 80022b4:	685b      	ldr	r3, [r3, #4]
 80022b6:	0d9b      	lsrs	r3, r3, #22
 80022b8:	f003 0301 	and.w	r3, r3, #1
 80022bc:	60bb      	str	r3, [r7, #8]
 80022be:	4b24      	ldr	r3, [pc, #144]	@ (8002350 <SystemCoreClockUpdate+0xec>)
 80022c0:	685b      	ldr	r3, [r3, #4]
 80022c2:	f003 033f 	and.w	r3, r3, #63	@ 0x3f
 80022c6:	607b      	str	r3, [r7, #4]
 80022c8:	68bb      	ldr	r3, [r7, #8]
 80022ca:	2b00      	cmp	r3, #0
 80022cc:	d00c      	beq.n	80022e8 <SystemCoreClockUpdate+0x84>
 80022ce:	4a23      	ldr	r2, [pc, #140]	@ (800235c <SystemCoreClockUpdate+0xf8>)
 80022d0:	687b      	ldr	r3, [r7, #4]
 80022d2:	fbb2 f3f3 	udiv	r3, r2, r3
 80022d6:	4a1e      	ldr	r2, [pc, #120]	@ (8002350 <SystemCoreClockUpdate+0xec>)
 80022d8:	6852      	ldr	r2, [r2, #4]
 80022da:	0992      	lsrs	r2, r2, #6
 80022dc:	f3c2 0208 	ubfx	r2, r2, #0, #9
 80022e0:	fb02 f303 	mul.w	r3, r2, r3
 80022e4:	617b      	str	r3, [r7, #20]
 80022e6:	e00b      	b.n	8002300 <SystemCoreClockUpdate+0x9c>
 80022e8:	4a1b      	ldr	r2, [pc, #108]	@ (8002358 <SystemCoreClockUpdate+0xf4>)
 80022ea:	687b      	ldr	r3, [r7, #4]
 80022ec:	fbb2 f3f3 	udiv	r3, r2, r3
 80022f0:	4a17      	ldr	r2, [pc, #92]	@ (8002350 <SystemCoreClockUpdate+0xec>)
 80022f2:	6852      	ldr	r2, [r2, #4]
 80022f4:	0992      	lsrs	r2, r2, #6
 80022f6:	f3c2 0208 	ubfx	r2, r2, #0, #9
 80022fa:	fb02 f303 	mul.w	r3, r2, r3
 80022fe:	617b      	str	r3, [r7, #20]
 8002300:	4b13      	ldr	r3, [pc, #76]	@ (8002350 <SystemCoreClockUpdate+0xec>)
 8002302:	685b      	ldr	r3, [r3, #4]
 8002304:	0c1b      	lsrs	r3, r3, #16
 8002306:	f003 0303 	and.w	r3, r3, #3
 800230a:	3301      	adds	r3, #1
 800230c:	005b      	lsls	r3, r3, #1
 800230e:	60fb      	str	r3, [r7, #12]
 8002310:	697a      	ldr	r2, [r7, #20]
 8002312:	68fb      	ldr	r3, [r7, #12]
 8002314:	fbb2 f3f3 	udiv	r3, r2, r3
 8002318:	4a0e      	ldr	r2, [pc, #56]	@ (8002354 <SystemCoreClockUpdate+0xf0>)
 800231a:	6013      	str	r3, [r2, #0]
 800231c:	e003      	b.n	8002326 <SystemCoreClockUpdate+0xc2>
 800231e:	4b0d      	ldr	r3, [pc, #52]	@ (8002354 <SystemCoreClockUpdate+0xf0>)
 8002320:	4a0d      	ldr	r2, [pc, #52]	@ (8002358 <SystemCoreClockUpdate+0xf4>)
 8002322:	601a      	str	r2, [r3, #0]
 8002324:	bf00      	nop
 8002326:	4b0a      	ldr	r3, [pc, #40]	@ (8002350 <SystemCoreClockUpdate+0xec>)
 8002328:	689b      	ldr	r3, [r3, #8]
 800232a:	091b      	lsrs	r3, r3, #4
 800232c:	f003 030f 	and.w	r3, r3, #15
 8002330:	4a0b      	ldr	r2, [pc, #44]	@ (8002360 <SystemCoreClockUpdate+0xfc>)
 8002332:	5cd3      	ldrb	r3, [r2, r3]
 8002334:	613b      	str	r3, [r7, #16]
 8002336:	4b07      	ldr	r3, [pc, #28]	@ (8002354 <SystemCoreClockUpdate+0xf0>)
 8002338:	681a      	ldr	r2, [r3, #0]
 800233a:	693b      	ldr	r3, [r7, #16]
 800233c:	fa22 f303 	lsr.w	r3, r2, r3
 8002340:	4a04      	ldr	r2, [pc, #16]	@ (8002354 <SystemCoreClockUpdate+0xf0>)
 8002342:	6013      	str	r3, [r2, #0]
 8002344:	bf00      	nop
 8002346:	371c      	adds	r7, #28
 8002348:	46bd      	mov	sp, r7
 800234a:	f85d 7b04 	ldr.w	r7, [sp], #4
 800234e:	4770      	bx	lr
 8002350:	40023800 	.word	0x40023800
 8002354:	20000000 	.word	0x20000000
 8002358:	00f42400 	.word	0x00f42400
 800235c:	007a1200 	.word	0x007a1200
 8002360:	08002418 	.word	0x08002418

08002364 <Reset_Handler>:
 8002364:	480d      	ldr	r0, [pc, #52]	@ (800239c <LoopForever+0x2>)
 8002366:	4685      	mov	sp, r0
 8002368:	f7ff ff6a 	bl	8002240 <SystemInit>
 800236c:	480c      	ldr	r0, [pc, #48]	@ (80023a0 <LoopForever+0x6>)
 800236e:	490d      	ldr	r1, [pc, #52]	@ (80023a4 <LoopForever+0xa>)
 8002370:	4a0d      	ldr	r2, [pc, #52]	@ (80023a8 <LoopForever+0xe>)
 8002372:	2300      	movs	r3, #0
 8002374:	e002      	b.n	800237c <LoopCopyDataInit>

08002376 <CopyDataInit>:
 8002376:	58d4      	ldr	r4, [r2, r3]
 8002378:	50c4      	str	r4, [r0, r3]
 800237a:	3304      	adds	r3, #4

0800237c <LoopCopyDataInit>:
 800237c:	18c4      	adds	r4, r0, r3
 800237e:	428c      	cmp	r4, r1
 8002380:	d3f9      	bcc.n	8002376 <CopyDataInit>
 8002382:	4a0a      	ldr	r2, [pc, #40]	@ (80023ac <LoopForever+0x12>)
 8002384:	4c0a      	ldr	r4, [pc, #40]	@ (80023b0 <LoopForever+0x16>)
 8002386:	2300      	movs	r3, #0
 8002388:	e001      	b.n	800238e <LoopFillZerobss>

0800238a <FillZerobss>:
 800238a:	6013      	str	r3, [r2, #0]
 800238c:	3204      	adds	r2, #4

0800238e <LoopFillZerobss>:
 800238e:	42a2      	cmp	r2, r4
 8002390:	d3fb      	bcc.n	800238a <FillZerobss>
 8002392:	f000 f811 	bl	80023b8 <__libc_init_array>
 8002396:	f7ff ff46 	bl	8002226 <main>

0800239a <LoopForever>:
 800239a:	e7fe      	b.n	800239a <LoopForever>
 800239c:	20020000 	.word	0x20020000
 80023a0:	20000000 	.word	0x20000000
 80023a4:	20000004 	.word	0x20000004
 80023a8:	08002430 	.word	0x08002430
 80023ac:	20000004 	.word	0x20000004
 80023b0:	200000b4 	.word	0x200000b4

080023b4 <ADC_IRQHandler>:
 80023b4:	e7fe      	b.n	80023b4 <ADC_IRQHandler>
	...

080023b8 <__libc_init_array>:
 80023b8:	b570      	push	{r4, r5, r6, lr}
 80023ba:	4d0d      	ldr	r5, [pc, #52]	@ (80023f0 <__libc_init_array+0x38>)
 80023bc:	4c0d      	ldr	r4, [pc, #52]	@ (80023f4 <__libc_init_array+0x3c>)
 80023be:	1b64      	subs	r4, r4, r5
 80023c0:	10a4      	asrs	r4, r4, #2
 80023c2:	2600      	movs	r6, #0
 80023c4:	42a6      	cmp	r6, r4
 80023c6:	d109      	bne.n	80023dc <__libc_init_array+0x24>
 80023c8:	4d0b      	ldr	r5, [pc, #44]	@ (80023f8 <__libc_init_array+0x40>)
 80023ca:	4c0c      	ldr	r4, [pc, #48]	@ (80023fc <__libc_init_array+0x44>)
 80023cc:	f000 f818 	bl	8002400 <_init>
 80023d0:	1b64      	subs	r4, r4, r5
 80023d2:	10a4      	asrs	r4, r4, #2
 80023d4:	2600      	movs	r6, #0
 80023d6:	42a6      	cmp	r6, r4
 80023d8:	d105      	bne.n	80023e6 <__libc_init_array+0x2e>
 80023da:	bd70      	pop	{r4, r5, r6, pc}
 80023dc:	f855 3b04 	ldr.w	r3, [r5], #4
 80023e0:	4798      	blx	r3
 80023e2:	3601      	adds	r6, #1
 80023e4:	e7ee      	b.n	80023c4 <__libc_init_array+0xc>
 80023e6:	f855 3b04 	ldr.w	r3, [r5], #4
 80023ea:	4798      	blx	r3
 80023ec:	3601      	adds	r6, #1
 80023ee:	e7f2      	b.n	80023d6 <__libc_init_array+0x1e>
 80023f0:	08002428 	.word	0x08002428
 80023f4:	08002428 	.word	0x08002428
 80023f8:	08002428 	.word	0x08002428
 80023fc:	0800242c 	.word	0x0800242c

08002400 <_init>:
 8002400:	b5f8      	push	{r3, r4, r5, r6, r7, lr}
 8002402:	bf00      	nop
 8002404:	bcf8      	pop	{r3, r4, r5, r6, r7}
 8002406:	bc08      	pop	{r3}
 8002408:	469e      	mov	lr, r3
 800240a:	4770      	bx	lr

0800240c <_fini>:
 800240c:	b5f8      	push	{r3, r4, r5, r6, r7, lr}
 800240e:	bf00      	nop
 8002410:	bcf8      	pop	{r3, r4, r5, r6, r7}
 8002412:	bc08      	pop	{r3}
 8002414:	469e      	mov	lr, r3
 8002416:	4770      	bx	lr

Disassembly of section .app_section:

08008000 <Blink_App>:
 8008000:	b590      	push	{r4, r7, lr}
 8008002:	b085      	sub	sp, #20
 8008004:	af04      	add	r7, sp, #16
 8008006:	2001      	movs	r0, #1
 8008008:	2400      	movs	r4, #0
 800800a:	2302      	movs	r3, #2
 800800c:	2204      	movs	r2, #4
 800800e:	2100      	movs	r1, #0
 8008010:	9102      	str	r1, [sp, #8]
 8008012:	9201      	str	r2, [sp, #4]
 8008014:	9300      	str	r3, [sp, #0]
 8008016:	4623      	mov	r3, r4
 8008018:	4602      	mov	r2, r0
 800801a:	210c      	movs	r1, #12
 800801c:	4809      	ldr	r0, [pc, #36]	@ (8008044 <Blink_App+0x44>)
 800801e:	f7f9 fd83 	bl	8001b28 <GPIO_Pin_Init>
 8008022:	210c      	movs	r1, #12
 8008024:	4807      	ldr	r0, [pc, #28]	@ (8008044 <Blink_App+0x44>)
 8008026:	f7fa f8ea 	bl	80021fe <GPIO_Pin_High>
 800802a:	2001      	movs	r0, #1
 800802c:	f7fa f8b8 	bl	80021a0 <Delay_s>
 8008030:	210c      	movs	r1, #12
 8008032:	4804      	ldr	r0, [pc, #16]	@ (8008044 <Blink_App+0x44>)
 8008034:	f7fa f8ce 	bl	80021d4 <GPIO_Pin_Low>
 8008038:	2001      	movs	r0, #1
 800803a:	f7fa f8b1 	bl	80021a0 <Delay_s>
 800803e:	bf00      	nop
 8008040:	e7ef      	b.n	8008022 <Blink_App+0x22>
 8008042:	bf00      	nop
 8008044:	40020c00 	.word	0x40020c00
